(dp1
S'output'
p2
S''
sS'layer'
p3
S'/home/kaique/Projects/web2py/applications/gaviao_peixoto/views/default/index.html'
p4
sS'code'
p5
S'response.write(\'<!DOCTYPE html>\\n<html lang="\', escape=False)\nresponse.write(T.accepted_language or \'en\')\nresponse.write(\'" class="no-js"><!-- no-js need it for modernzr -->\\n  <head>\\n    \\n    <meta charset="utf-8" />        \\n    <!-- www.phpied.com/conditional-comments-block-downloads/ -->\\n    <!--[if IE]>\\n      <!-- Always force latest IE rendering engine \\n       (even in intranet) & Chrome Frame \\n       Remove this if you use the .htaccess -->\\n      <meta http-equiv="X-UA-Compatible" content="IE=edge,chrome=1">\\n    <![endif]-->    \\n\\n    <title>\', escape=False)\nresponse.write(response.title)\nresponse.write(\'</title>\\n    \\n    <!-- http://dev.w3.org/html5/markup/meta.name.html -->\\n    <meta name="application-name" content="\', escape=False)\nresponse.write(request.application)\nresponse.write(\'" /> \\n    \\n    <!-- Speaking of Google, don\\\'t forget to set your site up: \\n     http://google.com/webmasters -->\\n    <meta name="google-site-verification" content="" />\\n    \\n    <!--  Mobile Viewport Fix\\n      j.mp/mobileviewport & davidbcalhoun.com/2010/viewport-metatag \\n      device-width: Occupy full width of the screen in its current orientation\\n      initial-scale = 1.0 retains dimensions instead of zooming out if page height > device height\\n      maximum-scale = 1.0 retains dimensions instead of zooming in if page width < device width\\n      -->\\n    <meta name="viewport" content="width=device-width, initial-scale=1.0, maximum-scale=1.0">\\n    \\n    <!-- Place favicon.ico and apple-touch-icon.png in the root of your domain and delete these references -->\\n    <link rel="shortcut icon" href="\', escape=False)\nresponse.write(URL(\'static\',\'favicon.ico\'))\nresponse.write(\'" type="image/x-icon">\\n    <link rel="apple-touch-icon" href="\', escape=False)\nresponse.write(URL(\'static\',\'favicon.png\'))\nresponse.write(\'">\\n\\n    <!-- For the less-enabled mobile browsers like Opera Mini -->\\n    <link rel="stylesheet" media="handheld" href="\', escape=False)\nresponse.write(URL(\'static\',\'css/handheld.css\'))\nresponse.write(\'">\\n    \\n    <!-- All JavaScript at the bottom, except for Modernizr which enables HTML5 elements & feature detects -->\\n    <script src="\', escape=False)\nresponse.write(URL(\'static\',\'js/modernizr-1.7.min.js\'))\nresponse.write(\'"></script>\\n    \\n    \', escape=False)\n#------  require CSS and JS files for this page (read info in base.css) ------\nresponse.write(\'\\n    \', escape=False)\nresponse.files.append(URL(\'static\',\'css/base.css\'))\nresponse.write(\'\\n    \', escape=False)\nresponse.files.append(URL(\'static\',\'css/superfish.css\'))\nresponse.write(\'\\n    \', escape=False)\nresponse.files.append(URL(\'static\',\'js/superfish.js\'))\nresponse.write(\'\\n    \', escape=False)\n#------ include web2py specific js code (jquery, calendar, form stuff) ------\nresponse.write(\'\\n    \', escape=False)\nresponse.files.insert(0,URL(\'static\',\'js/jquery.js\'))\nresponse.files.insert(1,URL(\'static\',\'css/anytime.css\'))\nresponse.files.insert(2,URL(\'static\',\'js/anytime.js\'))\nresponse.include_meta()\nresponse.include_files()\nresponse.write(\'\\n<script type="text/javascript"><!--\\n    // These variables are used by the web2py_ajax_init function in web2py_ajax.js (which is loaded below).\\n    var w2p_ajax_confirm_message = "\', escape=False)\nresponse.write(T(\'Are you sure you want to delete this object?\'))\nresponse.write(\'";\\n    var w2p_ajax_date_format = "\', escape=False)\nresponse.write(T(\'%Y-%m-%d\'))\nresponse.write(\'";\\n    var w2p_ajax_datetime_format = "\', escape=False)\nresponse.write(T(\'%Y-%m-%d %H:%M:%S\'))\nresponse.write(\'";\\n    //--></script>\\n    <script src="\', escape=False)\nresponse.write(URL(\'static\',\'js/web2py_ajax.js\'))\nresponse.write(\'" type="text/javascript"></script>\\n\', escape=False)\nresponse.write(\'\\n\\n    \', escape=False)\n#using sidebars need to know what sidebar you want to use\n#prior of using it, because of static width size of content, you can use\n#left_sidebar, right_sidebar, both or none (False left and right)\nleft_sidebar_enabled = globals().get(\'left_sidebar_enabled\',False)\nright_sidebar_enabled = globals().get(\'right_sidebar_enabled\',False)\nif left_sidebar_enabled and right_sidebar_enabled: width_content=\'63%\'\nelif left_sidebar_enabled != right_sidebar_enabled: width_content=\'740px\'\nelse: width_content=\'100%\'\nif left_sidebar_enabled: left_sidebar_style = \'style="display: block;"\'\nelse: left_sidebar_style = \'style="display: none;"\'\nif right_sidebar_enabled: right_sidebar_style = \'style="display: block;"\'\nelse: right_sidebar_style = \'style="display: none;"\'\nstyle_content = \'style="width: %s"\' % width_content\nresponse.write(\'\\n    \\n    <!-- uncomment here to load jquery-ui -->\\n    \\n    <link rel="stylesheet" href="http://ajax.googleapis.com/ajax/libs/jqueryui/1.8.16/themes/base/jquery-ui.css" type="text/css" media="all" />\\n    <script src="http://ajax.googleapis.com/ajax/libs/jqueryui/1.8.16/jquery-ui.min.js" type="text/javascript"></script>\\n    \\n   <!-- uncomment to load jquery-ui -->\\n    \\n    \\n  </head>\\n  \\n  <!-- paulirish.com/2008/conditional-stylesheets-vs-css-hacks-answer-neither/ -->  \\n  <!--[if lt IE 7 ]> <body class="ie6"> <![endif]-->\\n  <!--[if IE 7 ]>    <body class="ie7"> <![endif]-->\\n  <!--[if IE 8 ]>    <body class="ie8"> <![endif]-->\\n  <!--[if IE 9 ]>    <body class="ie9"> <![endif]-->\\n  <!--[if (gt IE 9)|!(IE)]><!--> <body> <!--<![endif]-->\\n    \\n    <div class="flash">\', escape=False)\nresponse.write(response.flash or \'\')\nresponse.write(\'</div> <!-- notification div -->\\n\\n        \\n\\n    <div id="container">                        \\n      \\n      <div id="wrapper">        \\n      \', escape=False)\ntry:\n    response.write(auth.navbar(action=URL(\'default\',\'user\')))\nexcept:pass\nresponse.write(\'\\n    \\n    <div id="header"> <!-- header and login nav -->\\n      \', escape=False)\nresponse.write(\' <!-- this is default header -->\\n      \\n      <h1>\\n        <span id="appname">\', escape=False)\nresponse.write(request.title.capitalize())\nresponse.write(\'</span>App\\n      </h1>\\n      <div style="clear: both;"></div><!-- Clear the divs -->\\n      \', escape=False)\nresponse.write(\'\\n    </div><!-- header  -->\\n    \\n    <div id="statusbar"><!-- statusbar is menu zone -->\\n      \', escape=False)\nresponse.write(\' <!-- this is default statusbar -->\\n      \', escape=False)\n#------ superfish menu ------\nresponse.write(\'\\n      \', escape=False)\nresponse.write(MENU(response.menu,_class=\'sf-menu\'))\nresponse.write(\'\\n      <script type="text/javascript">\\n        jQuery(document).ready(function(){\\n        jQuery(\\\'ul.sf-menu\\\').superfish();});\\n      </script>\\n\\n      <!-- AddToAny BEGIN -->\\n      <div style="padding: 7px; float:right;" class="a2a_kit a2a_default_style"><a class="a2a_dd" href="http://www.addtoany.com/share_save">Share</a></div><script type="text/javascript" src="http://static.addtoany.com/menu/page.js"></script>\\n      <!-- AddToAny END -->\\n\\n      <div style="clear: both;"></div><!-- Clear the divs -->   \\n      \', escape=False)\nresponse.write(\'               \\n    </div><!-- statusbar -->\\n    \\n    <div id="page"> <!-- Here my central body -->     \\n\\n      \', escape=False)\nif left_sidebar_enabled:\n    response.write(\'\\n          <div id="left_sidebar" \', escape=False)\n    response.write(XML(left_sidebar_style))\n    response.write(\' >\\n            <div style="padding: 4px;">\\n          \', escape=False)\n    response.write(\'Content Left Sidebar\', escape=False)\n    response.write(\'       \\n            </div>\\n          </div><!-- left_sidebar -->\\n      \', escape=False)\n    pass\nresponse.write(\'\\n\\n      <!-- content -->\\n      <div id="content" \', escape=False)\nresponse.write(XML(style_content))\nresponse.write(\' >\\n        \', escape=False)\nresponse.write(\'\\n\', escape=False)\nresponse.write(\' \\n      </div>\\n      <!-- content -->\\n\\n      \', escape=False)\nif right_sidebar_enabled:\n    response.write(\'\\n          <div id="right_sidebar" \', escape=False)\n    response.write(XML(right_sidebar_style))\n    response.write(\' >\\n            <div style="padding: 4px;">\\n              \', escape=False)\n    response.write(\'Content Right Sidebar\', escape=False)\n    response.write(\'\\n            </div>\\n      </div><!-- right_sidebar -->\\n          \', escape=False)\n    pass\nresponse.write(\'\\n\\n\\n      <div style="clear: both;"></div><!-- Clear the divs -->\\n      \\n    </div><!-- page -->                         \\n    \\n    <div id="footer">\\n      \', escape=False)\nresponse.write(\' <!-- this is default footer -->\\n      <a href="http://www.web2py.com/" style="float: left; padding-right: 6px;">\\n        <img src="\', escape=False)\nresponse.write(URL(\'static\',\'images/poweredby.png\'))\nresponse.write(\'"/>\\n      </a>\\n      \', escape=False)\nresponse.write(T(\'Copyright\'))\nresponse.write(\' &#169; 2011               \\n      <div style="clear: both;"></div><!-- Clear the divs -->\\n      \', escape=False)\nresponse.write(\'\\n\\n    </div><!-- footer -->           \\n      </div><!-- wrapper -->\\n    </div><!-- container -->        \\n    \\n    <!--[if lt IE 7 ]>\\n    <script src="\', escape=False)\nresponse.write(URL(\'static\',\'js/dd_belatedpng.js\'))\nresponse.write(\'"></script>\\n    <script> DD_belatedPNG.fix(\\\'img, .png_bg\\\'); //fix any <img> or .png_bg background-images </script>\\n    <![endif]-->\\n    \', escape=False)\nif response.google_analytics_id:\n    response.write("<script>/* http://mathiasbynens.be/notes/async-analytics-snippet */ var _gaq=[[\'_setAccount\',\'", escape=False)\n    response.write(response.google_analyitics_id)\n    response.write("\'],[\'_trackPageview\']];(function(d,t){var g=d.createElement(t),s=d.getElementsByTagName(t)[0];g.src=\'//www.google-analytics.com/ga.js\';s.parentNode.insertBefore(g,s)}(document,\'script\')) </script>", escape=False)\n    pass\nresponse.write(\'\\n  </body>\\n</html>\\n\', escape=False)'
p6
sS'snapshot'
p7
(dp8
S'exception'
p9
(dp10
S'__hash__'
p11
S"<method-wrapper '__hash__' of exceptions.AttributeError object>"
p12
sS'__setattr__'
p13
S"<method-wrapper '__setattr__' of exceptions.AttributeError object>"
p14
sS'__reduce_ex__'
p15
S'<built-in method __reduce_ex__ of exceptions.AttributeError object>'
p16
sS'__getslice__'
p17
S"<method-wrapper '__getslice__' of exceptions.AttributeError object>"
p18
sS'__getitem__'
p19
S"<method-wrapper '__getitem__' of exceptions.AttributeError object>"
p20
sS'__setstate__'
p21
S'<built-in method __setstate__ of exceptions.AttributeError object>'
p22
sS'args'
p23
S'("\'NoneType\' object has no attribute \'capitalize\'",)'
p24
sS'__reduce__'
p25
S'<built-in method __reduce__ of exceptions.AttributeError object>'
p26
sS'__str__'
p27
S"<method-wrapper '__str__' of exceptions.AttributeError object>"
p28
sS'__format__'
p29
S'<built-in method __format__ of exceptions.AttributeError object>'
p30
sS'__getattribute__'
p31
S"<method-wrapper '__getattribute__' of exceptions.AttributeError object>"
p32
sS'__class__'
p33
S"<type 'exceptions.AttributeError'>"
p34
sS'__unicode__'
p35
S'<built-in method __unicode__ of exceptions.AttributeError object>'
p36
sS'__delattr__'
p37
S"<method-wrapper '__delattr__' of exceptions.AttributeError object>"
p38
sS'__subclasshook__'
p39
S'<built-in method __subclasshook__ of type object>'
p40
sS'__repr__'
p41
S"<method-wrapper '__repr__' of exceptions.AttributeError object>"
p42
sS'__dict__'
p43
S'{}'
p44
sS'__sizeof__'
p45
S'<built-in method __sizeof__ of exceptions.AttributeError object>'
p46
sS'__doc__'
p47
S"'Attribute not found.'"
p48
sS'__init__'
p49
S"<method-wrapper '__init__' of exceptions.AttributeError object>"
p50
sS'__new__'
p51
S'<built-in method __new__ of type object>'
p52
ssS'evalue'
p53
S"'NoneType' object has no attribute 'capitalize'"
p54
sS'request'
p55
ccopy_reg
_reconstructor
p56
(cgluon.html
BEAUTIFY
p57
c__builtin__
object
p58
NtRp59
(dp60
S'attributes'
p61
(dp62
sS'components'
p63
(lp64
g56
(cgluon.html
TABLE
p65
g58
NtRp66
(dp67
g61
(dp68
S'level'
p69
I5
ssS'parent'
p70
Nsg63
(lp71
g56
(cgluon.html
TR
p72
g58
NtRp73
(dp74
g61
(dp75
sg70
g66
sg63
(lp76
g56
(cgluon.html
TD
p77
g58
NtRp78
(dp79
g61
(dp80
S'_style'
p81
S'font-weight:bold;'
p82
ssg70
g73
sg63
(lp83
S'ajax'
p84
asbag56
(g77
g58
NtRp85
(dp86
g61
(dp87
S'_valign'
p88
S'top'
p89
ssg70
g73
sg63
(lp90
S':'
asbag56
(g77
g58
NtRp91
(dp92
g61
(dp93
sg70
g73
sg63
(lp94
g56
(g57
g58
NtRp95
(dp96
g61
(dp97
g69
I5
ssg70
g91
sg63
(lp98
S'False'
p99
asbasbasbag56
(g72
g58
NtRp100
(dp101
g61
(dp102
sg70
g66
sg63
(lp103
g56
(g77
g58
NtRp104
(dp105
g61
(dp106
g81
g82
ssg70
g100
sg63
(lp107
S'application'
p108
asbag56
(g77
g58
NtRp109
(dp110
g61
(dp111
g88
g89
ssg70
g100
sg63
(lp112
S':'
asbag56
(g77
g58
NtRp113
(dp114
g61
(dp115
sg70
g100
sg63
(lp116
g56
(g57
g58
NtRp117
(dp118
g61
(dp119
g69
I5
ssg70
g113
sg63
(lp120
S'gaviao_peixoto'
p121
asbasbasbag56
(g72
g58
NtRp122
(dp123
g61
(dp124
sg70
g66
sg63
(lp125
g56
(g77
g58
NtRp126
(dp127
g61
(dp128
g81
g82
ssg70
g122
sg63
(lp129
g23
asbag56
(g77
g58
NtRp130
(dp131
g61
(dp132
g88
g89
ssg70
g122
sg63
(lp133
S':'
asbag56
(g77
g58
NtRp134
(dp135
g61
(dp136
sg70
g122
sg63
(lp137
g56
(g57
g58
NtRp138
(dp139
g61
(dp140
g69
I5
ssg70
g134
sg63
(lp141
g56
(g65
g58
NtRp142
(dp143
g61
(dp144
g69
I4
ssg70
Nsg63
(lp145
sbasbasbasbag56
(g72
g58
NtRp146
(dp147
g61
(dp148
sg70
g66
sg63
(lp149
g56
(g77
g58
NtRp150
(dp151
g61
(dp152
g81
g82
ssg70
g146
sg63
(lp153
S'body'
p154
asbag56
(g77
g58
NtRp155
(dp156
g61
(dp157
g88
g89
ssg70
g146
sg63
(lp158
S':'
asbag56
(g77
g58
NtRp159
(dp160
g61
(dp161
sg70
g146
sg63
(lp162
g56
(g57
g58
NtRp163
(dp164
g61
(dp165
g69
I5
ssg70
g159
sg63
(lp166
S'<cStringIO.StringO object at 0x33e0ca8>'
p167
asbasbasbag56
(g72
g58
NtRp168
(dp169
g61
(dp170
sg70
g66
sg63
(lp171
g56
(g77
g58
NtRp172
(dp173
g61
(dp174
g81
g82
ssg70
g168
sg63
(lp175
S'client'
p176
asbag56
(g77
g58
NtRp177
(dp178
g61
(dp179
g88
g89
ssg70
g168
sg63
(lp180
S':'
asbag56
(g77
g58
NtRp181
(dp182
g61
(dp183
sg70
g168
sg63
(lp184
g56
(g57
g58
NtRp185
(dp186
g61
(dp187
g69
I5
ssg70
g181
sg63
(lp188
S'127.0.0.1'
p189
asbasbasbag56
(g72
g58
NtRp190
(dp191
g61
(dp192
sg70
g66
sg63
(lp193
g56
(g77
g58
NtRp194
(dp195
g61
(dp196
g81
g82
ssg70
g190
sg63
(lp197
S'controller'
p198
asbag56
(g77
g58
NtRp199
(dp200
g61
(dp201
g88
g89
ssg70
g190
sg63
(lp202
S':'
asbag56
(g77
g58
NtRp203
(dp204
g61
(dp205
sg70
g190
sg63
(lp206
g56
(g57
g58
NtRp207
(dp208
g61
(dp209
g69
I5
ssg70
g203
sg63
(lp210
S'default'
p211
asbasbasbag56
(g72
g58
NtRp212
(dp213
g61
(dp214
sg70
g66
sg63
(lp215
g56
(g77
g58
NtRp216
(dp217
g61
(dp218
g81
g82
ssg70
g212
sg63
(lp219
S'cookies'
p220
asbag56
(g77
g58
NtRp221
(dp222
g61
(dp223
g88
g89
ssg70
g212
sg63
(lp224
S':'
asbag56
(g77
g58
NtRp225
(dp226
g61
(dp227
sg70
g212
sg63
(lp228
g56
(g57
g58
NtRp229
(dp230
g61
(dp231
g69
I5
ssg70
g225
sg63
(lp232
g56
(g65
g58
NtRp233
(dp234
g61
(dp235
g69
I4
ssg70
Nsg63
(lp236
g56
(g72
g58
NtRp237
(dp238
g61
(dp239
sg70
g233
sg63
(lp240
g56
(g77
g58
NtRp241
(dp242
g61
(dp243
g81
g82
ssg70
g237
sg63
(lp244
S'session_id_admin'
p245
asbag56
(g77
g58
NtRp246
(dp247
g61
(dp248
g88
g89
ssg70
g237
sg63
(lp249
S':'
asbag56
(g77
g58
NtRp250
(dp251
g61
(dp252
sg70
g237
sg63
(lp253
g56
(g57
g58
NtRp254
(dp255
g61
(dp256
g69
I4
ssg70
g250
sg63
(lp257
g56
(g65
g58
NtRp258
(dp259
g61
(dp260
g69
I3
ssg70
Nsg63
(lp261
g56
(g72
g58
NtRp262
(dp263
g61
(dp264
sg70
g258
sg63
(lp265
g56
(g77
g58
NtRp266
(dp267
g61
(dp268
g81
g82
ssg70
g262
sg63
(lp269
S'comment'
p270
asbag56
(g77
g58
NtRp271
(dp272
g61
(dp273
g88
g89
ssg70
g262
sg63
(lp274
S':'
asbag56
(g77
g58
NtRp275
(dp276
g61
(dp277
sg70
g262
sg63
(lp278
g56
(g57
g58
NtRp279
(dp280
g61
(dp281
g69
I3
ssg70
g275
sg63
(lp282
S''
asbasbasbag56
(g72
g58
NtRp283
(dp284
g61
(dp285
sg70
g258
sg63
(lp286
g56
(g77
g58
NtRp287
(dp288
g61
(dp289
g81
g82
ssg70
g283
sg63
(lp290
S'domain'
p291
asbag56
(g77
g58
NtRp292
(dp293
g61
(dp294
g88
g89
ssg70
g283
sg63
(lp295
S':'
asbag56
(g77
g58
NtRp296
(dp297
g61
(dp298
sg70
g283
sg63
(lp299
g56
(g57
g58
NtRp300
(dp301
g61
(dp302
g69
I3
ssg70
g296
sg63
(lp303
S''
asbasbasbag56
(g72
g58
NtRp304
(dp305
g61
(dp306
sg70
g258
sg63
(lp307
g56
(g77
g58
NtRp308
(dp309
g61
(dp310
g81
g82
ssg70
g304
sg63
(lp311
S'expires'
p312
asbag56
(g77
g58
NtRp313
(dp314
g61
(dp315
g88
g89
ssg70
g304
sg63
(lp316
S':'
asbag56
(g77
g58
NtRp317
(dp318
g61
(dp319
sg70
g304
sg63
(lp320
g56
(g57
g58
NtRp321
(dp322
g61
(dp323
g69
I3
ssg70
g317
sg63
(lp324
S''
asbasbasbag56
(g72
g58
NtRp325
(dp326
g61
(dp327
sg70
g258
sg63
(lp328
g56
(g77
g58
NtRp329
(dp330
g61
(dp331
g81
g82
ssg70
g325
sg63
(lp332
S'httponly'
p333
asbag56
(g77
g58
NtRp334
(dp335
g61
(dp336
g88
g89
ssg70
g325
sg63
(lp337
S':'
asbag56
(g77
g58
NtRp338
(dp339
g61
(dp340
sg70
g325
sg63
(lp341
g56
(g57
g58
NtRp342
(dp343
g61
(dp344
g69
I3
ssg70
g338
sg63
(lp345
S''
asbasbasbag56
(g72
g58
NtRp346
(dp347
g61
(dp348
sg70
g258
sg63
(lp349
g56
(g77
g58
NtRp350
(dp351
g61
(dp352
g81
g82
ssg70
g346
sg63
(lp353
S'max-age'
p354
asbag56
(g77
g58
NtRp355
(dp356
g61
(dp357
g88
g89
ssg70
g346
sg63
(lp358
S':'
asbag56
(g77
g58
NtRp359
(dp360
g61
(dp361
sg70
g346
sg63
(lp362
g56
(g57
g58
NtRp363
(dp364
g61
(dp365
g69
I3
ssg70
g359
sg63
(lp366
S''
asbasbasbag56
(g72
g58
NtRp367
(dp368
g61
(dp369
sg70
g258
sg63
(lp370
g56
(g77
g58
NtRp371
(dp372
g61
(dp373
g81
g82
ssg70
g367
sg63
(lp374
S'path'
p375
asbag56
(g77
g58
NtRp376
(dp377
g61
(dp378
g88
g89
ssg70
g367
sg63
(lp379
S':'
asbag56
(g77
g58
NtRp380
(dp381
g61
(dp382
sg70
g367
sg63
(lp383
g56
(g57
g58
NtRp384
(dp385
g61
(dp386
g69
I3
ssg70
g380
sg63
(lp387
S''
asbasbasbag56
(g72
g58
NtRp388
(dp389
g61
(dp390
sg70
g258
sg63
(lp391
g56
(g77
g58
NtRp392
(dp393
g61
(dp394
g81
g82
ssg70
g388
sg63
(lp395
S'secure'
p396
asbag56
(g77
g58
NtRp397
(dp398
g61
(dp399
g88
g89
ssg70
g388
sg63
(lp400
S':'
asbag56
(g77
g58
NtRp401
(dp402
g61
(dp403
sg70
g388
sg63
(lp404
g56
(g57
g58
NtRp405
(dp406
g61
(dp407
g69
I3
ssg70
g401
sg63
(lp408
S''
asbasbasbag56
(g72
g58
NtRp409
(dp410
g61
(dp411
sg70
g258
sg63
(lp412
g56
(g77
g58
NtRp413
(dp414
g61
(dp415
g81
g82
ssg70
g409
sg63
(lp416
S'version'
p417
asbag56
(g77
g58
NtRp418
(dp419
g61
(dp420
g88
g89
ssg70
g409
sg63
(lp421
S':'
asbag56
(g77
g58
NtRp422
(dp423
g61
(dp424
sg70
g409
sg63
(lp425
g56
(g57
g58
NtRp426
(dp427
g61
(dp428
g69
I3
ssg70
g422
sg63
(lp429
S''
asbasbasbasbasbasbasbag56
(g72
g58
NtRp430
(dp431
g61
(dp432
sg70
g233
sg63
(lp433
g56
(g77
g58
NtRp434
(dp435
g61
(dp436
g81
g82
ssg70
g430
sg63
(lp437
S'session_id_gaviao_peixoto'
p438
asbag56
(g77
g58
NtRp439
(dp440
g61
(dp441
g88
g89
ssg70
g430
sg63
(lp442
S':'
asbag56
(g77
g58
NtRp443
(dp444
g61
(dp445
sg70
g430
sg63
(lp446
g56
(g57
g58
NtRp447
(dp448
g61
(dp449
g69
I4
ssg70
g443
sg63
(lp450
g56
(g65
g58
NtRp451
(dp452
g61
(dp453
g69
I3
ssg70
Nsg63
(lp454
g56
(g72
g58
NtRp455
(dp456
g61
(dp457
sg70
g451
sg63
(lp458
g56
(g77
g58
NtRp459
(dp460
g61
(dp461
g81
g82
ssg70
g455
sg63
(lp462
g270
asbag56
(g77
g58
NtRp463
(dp464
g61
(dp465
g88
g89
ssg70
g455
sg63
(lp466
S':'
asbag56
(g77
g58
NtRp467
(dp468
g61
(dp469
sg70
g455
sg63
(lp470
g56
(g57
g58
NtRp471
(dp472
g61
(dp473
g69
I3
ssg70
g467
sg63
(lp474
S''
asbasbasbag56
(g72
g58
NtRp475
(dp476
g61
(dp477
sg70
g451
sg63
(lp478
g56
(g77
g58
NtRp479
(dp480
g61
(dp481
g81
g82
ssg70
g475
sg63
(lp482
g291
asbag56
(g77
g58
NtRp483
(dp484
g61
(dp485
g88
g89
ssg70
g475
sg63
(lp486
S':'
asbag56
(g77
g58
NtRp487
(dp488
g61
(dp489
sg70
g475
sg63
(lp490
g56
(g57
g58
NtRp491
(dp492
g61
(dp493
g69
I3
ssg70
g487
sg63
(lp494
S''
asbasbasbag56
(g72
g58
NtRp495
(dp496
g61
(dp497
sg70
g451
sg63
(lp498
g56
(g77
g58
NtRp499
(dp500
g61
(dp501
g81
g82
ssg70
g495
sg63
(lp502
g312
asbag56
(g77
g58
NtRp503
(dp504
g61
(dp505
g88
g89
ssg70
g495
sg63
(lp506
S':'
asbag56
(g77
g58
NtRp507
(dp508
g61
(dp509
sg70
g495
sg63
(lp510
g56
(g57
g58
NtRp511
(dp512
g61
(dp513
g69
I3
ssg70
g507
sg63
(lp514
S''
asbasbasbag56
(g72
g58
NtRp515
(dp516
g61
(dp517
sg70
g451
sg63
(lp518
g56
(g77
g58
NtRp519
(dp520
g61
(dp521
g81
g82
ssg70
g515
sg63
(lp522
g333
asbag56
(g77
g58
NtRp523
(dp524
g61
(dp525
g88
g89
ssg70
g515
sg63
(lp526
S':'
asbag56
(g77
g58
NtRp527
(dp528
g61
(dp529
sg70
g515
sg63
(lp530
g56
(g57
g58
NtRp531
(dp532
g61
(dp533
g69
I3
ssg70
g527
sg63
(lp534
S''
asbasbasbag56
(g72
g58
NtRp535
(dp536
g61
(dp537
sg70
g451
sg63
(lp538
g56
(g77
g58
NtRp539
(dp540
g61
(dp541
g81
g82
ssg70
g535
sg63
(lp542
g354
asbag56
(g77
g58
NtRp543
(dp544
g61
(dp545
g88
g89
ssg70
g535
sg63
(lp546
S':'
asbag56
(g77
g58
NtRp547
(dp548
g61
(dp549
sg70
g535
sg63
(lp550
g56
(g57
g58
NtRp551
(dp552
g61
(dp553
g69
I3
ssg70
g547
sg63
(lp554
S''
asbasbasbag56
(g72
g58
NtRp555
(dp556
g61
(dp557
sg70
g451
sg63
(lp558
g56
(g77
g58
NtRp559
(dp560
g61
(dp561
g81
g82
ssg70
g555
sg63
(lp562
g375
asbag56
(g77
g58
NtRp563
(dp564
g61
(dp565
g88
g89
ssg70
g555
sg63
(lp566
S':'
asbag56
(g77
g58
NtRp567
(dp568
g61
(dp569
sg70
g555
sg63
(lp570
g56
(g57
g58
NtRp571
(dp572
g61
(dp573
g69
I3
ssg70
g567
sg63
(lp574
S''
asbasbasbag56
(g72
g58
NtRp575
(dp576
g61
(dp577
sg70
g451
sg63
(lp578
g56
(g77
g58
NtRp579
(dp580
g61
(dp581
g81
g82
ssg70
g575
sg63
(lp582
g396
asbag56
(g77
g58
NtRp583
(dp584
g61
(dp585
g88
g89
ssg70
g575
sg63
(lp586
S':'
asbag56
(g77
g58
NtRp587
(dp588
g61
(dp589
sg70
g575
sg63
(lp590
g56
(g57
g58
NtRp591
(dp592
g61
(dp593
g69
I3
ssg70
g587
sg63
(lp594
S''
asbasbasbag56
(g72
g58
NtRp595
(dp596
g61
(dp597
sg70
g451
sg63
(lp598
g56
(g77
g58
NtRp599
(dp600
g61
(dp601
g81
g82
ssg70
g595
sg63
(lp602
g417
asbag56
(g77
g58
NtRp603
(dp604
g61
(dp605
g88
g89
ssg70
g595
sg63
(lp606
S':'
asbag56
(g77
g58
NtRp607
(dp608
g61
(dp609
sg70
g595
sg63
(lp610
g56
(g57
g58
NtRp611
(dp612
g61
(dp613
g69
I3
ssg70
g607
sg63
(lp614
S''
asbasbasbasbasbasbasbag56
(g72
g58
NtRp615
(dp616
g61
(dp617
sg70
g233
sg63
(lp618
g56
(g77
g58
NtRp619
(dp620
g61
(dp621
g81
g82
ssg70
g615
sg63
(lp622
S'session_id_welcome'
p623
asbag56
(g77
g58
NtRp624
(dp625
g61
(dp626
g88
g89
ssg70
g615
sg63
(lp627
S':'
asbag56
(g77
g58
NtRp628
(dp629
g61
(dp630
sg70
g615
sg63
(lp631
g56
(g57
g58
NtRp632
(dp633
g61
(dp634
g69
I4
ssg70
g628
sg63
(lp635
g56
(g65
g58
NtRp636
(dp637
g61
(dp638
g69
I3
ssg70
Nsg63
(lp639
g56
(g72
g58
NtRp640
(dp641
g61
(dp642
sg70
g636
sg63
(lp643
g56
(g77
g58
NtRp644
(dp645
g61
(dp646
g81
g82
ssg70
g640
sg63
(lp647
g270
asbag56
(g77
g58
NtRp648
(dp649
g61
(dp650
g88
g89
ssg70
g640
sg63
(lp651
S':'
asbag56
(g77
g58
NtRp652
(dp653
g61
(dp654
sg70
g640
sg63
(lp655
g56
(g57
g58
NtRp656
(dp657
g61
(dp658
g69
I3
ssg70
g652
sg63
(lp659
S''
asbasbasbag56
(g72
g58
NtRp660
(dp661
g61
(dp662
sg70
g636
sg63
(lp663
g56
(g77
g58
NtRp664
(dp665
g61
(dp666
g81
g82
ssg70
g660
sg63
(lp667
g291
asbag56
(g77
g58
NtRp668
(dp669
g61
(dp670
g88
g89
ssg70
g660
sg63
(lp671
S':'
asbag56
(g77
g58
NtRp672
(dp673
g61
(dp674
sg70
g660
sg63
(lp675
g56
(g57
g58
NtRp676
(dp677
g61
(dp678
g69
I3
ssg70
g672
sg63
(lp679
S''
asbasbasbag56
(g72
g58
NtRp680
(dp681
g61
(dp682
sg70
g636
sg63
(lp683
g56
(g77
g58
NtRp684
(dp685
g61
(dp686
g81
g82
ssg70
g680
sg63
(lp687
g312
asbag56
(g77
g58
NtRp688
(dp689
g61
(dp690
g88
g89
ssg70
g680
sg63
(lp691
S':'
asbag56
(g77
g58
NtRp692
(dp693
g61
(dp694
sg70
g680
sg63
(lp695
g56
(g57
g58
NtRp696
(dp697
g61
(dp698
g69
I3
ssg70
g692
sg63
(lp699
S''
asbasbasbag56
(g72
g58
NtRp700
(dp701
g61
(dp702
sg70
g636
sg63
(lp703
g56
(g77
g58
NtRp704
(dp705
g61
(dp706
g81
g82
ssg70
g700
sg63
(lp707
g333
asbag56
(g77
g58
NtRp708
(dp709
g61
(dp710
g88
g89
ssg70
g700
sg63
(lp711
S':'
asbag56
(g77
g58
NtRp712
(dp713
g61
(dp714
sg70
g700
sg63
(lp715
g56
(g57
g58
NtRp716
(dp717
g61
(dp718
g69
I3
ssg70
g712
sg63
(lp719
S''
asbasbasbag56
(g72
g58
NtRp720
(dp721
g61
(dp722
sg70
g636
sg63
(lp723
g56
(g77
g58
NtRp724
(dp725
g61
(dp726
g81
g82
ssg70
g720
sg63
(lp727
g354
asbag56
(g77
g58
NtRp728
(dp729
g61
(dp730
g88
g89
ssg70
g720
sg63
(lp731
S':'
asbag56
(g77
g58
NtRp732
(dp733
g61
(dp734
sg70
g720
sg63
(lp735
g56
(g57
g58
NtRp736
(dp737
g61
(dp738
g69
I3
ssg70
g732
sg63
(lp739
S''
asbasbasbag56
(g72
g58
NtRp740
(dp741
g61
(dp742
sg70
g636
sg63
(lp743
g56
(g77
g58
NtRp744
(dp745
g61
(dp746
g81
g82
ssg70
g740
sg63
(lp747
g375
asbag56
(g77
g58
NtRp748
(dp749
g61
(dp750
g88
g89
ssg70
g740
sg63
(lp751
S':'
asbag56
(g77
g58
NtRp752
(dp753
g61
(dp754
sg70
g740
sg63
(lp755
g56
(g57
g58
NtRp756
(dp757
g61
(dp758
g69
I3
ssg70
g752
sg63
(lp759
S''
asbasbasbag56
(g72
g58
NtRp760
(dp761
g61
(dp762
sg70
g636
sg63
(lp763
g56
(g77
g58
NtRp764
(dp765
g61
(dp766
g81
g82
ssg70
g760
sg63
(lp767
g396
asbag56
(g77
g58
NtRp768
(dp769
g61
(dp770
g88
g89
ssg70
g760
sg63
(lp771
S':'
asbag56
(g77
g58
NtRp772
(dp773
g61
(dp774
sg70
g760
sg63
(lp775
g56
(g57
g58
NtRp776
(dp777
g61
(dp778
g69
I3
ssg70
g772
sg63
(lp779
S''
asbasbasbag56
(g72
g58
NtRp780
(dp781
g61
(dp782
sg70
g636
sg63
(lp783
g56
(g77
g58
NtRp784
(dp785
g61
(dp786
g81
g82
ssg70
g780
sg63
(lp787
g417
asbag56
(g77
g58
NtRp788
(dp789
g61
(dp790
g88
g89
ssg70
g780
sg63
(lp791
S':'
asbag56
(g77
g58
NtRp792
(dp793
g61
(dp794
sg70
g780
sg63
(lp795
g56
(g57
g58
NtRp796
(dp797
g61
(dp798
g69
I3
ssg70
g792
sg63
(lp799
S''
asbasbasbasbasbasbasbasbasbasbasbag56
(g72
g58
NtRp800
(dp801
g61
(dp802
sg70
g66
sg63
(lp803
g56
(g77
g58
NtRp804
(dp805
g61
(dp806
g81
g82
ssg70
g800
sg63
(lp807
S'env'
p808
asbag56
(g77
g58
NtRp809
(dp810
g61
(dp811
g88
g89
ssg70
g800
sg63
(lp812
S':'
asbag56
(g77
g58
NtRp813
(dp814
g61
(dp815
sg70
g800
sg63
(lp816
g56
(g57
g58
NtRp817
(dp818
g61
(dp819
g69
I5
ssg70
g813
sg63
(lp820
g56
(g65
g58
NtRp821
(dp822
g61
(dp823
g69
I4
ssg70
Nsg63
(lp824
g56
(g72
g58
NtRp825
(dp826
g61
(dp827
sg70
g821
sg63
(lp828
g56
(g77
g58
NtRp829
(dp830
g61
(dp831
g81
g82
ssg70
g825
sg63
(lp832
S'app_folders'
p833
asbag56
(g77
g58
NtRp834
(dp835
g61
(dp836
g88
g89
ssg70
g825
sg63
(lp837
S':'
asbag56
(g77
g58
NtRp838
(dp839
g61
(dp840
sg70
g825
sg63
(lp841
g56
(g57
g58
NtRp842
(dp843
g61
(dp844
g69
I4
ssg70
g838
sg63
(lp845
S"set(['/home/kaique/Projects/web2py/applications/welcome/', '/home/kaique/Projects/web2py/applications/admin/', '/home/kaique/Projects/web2py/applications/gaviao_peixoto/'])"
p846
asbasbasbag56
(g72
g58
NtRp847
(dp848
g61
(dp849
sg70
g821
sg63
(lp850
g56
(g77
g58
NtRp851
(dp852
g61
(dp853
g81
g82
ssg70
g847
sg63
(lp854
S'applications_parent'
p855
asbag56
(g77
g58
NtRp856
(dp857
g61
(dp858
g88
g89
ssg70
g847
sg63
(lp859
S':'
asbag56
(g77
g58
NtRp860
(dp861
g61
(dp862
sg70
g847
sg63
(lp863
g56
(g57
g58
NtRp864
(dp865
g61
(dp866
g69
I4
ssg70
g860
sg63
(lp867
S'/home/kaique/Projects/web2py'
p868
asbasbasbag56
(g72
g58
NtRp869
(dp870
g61
(dp871
sg70
g821
sg63
(lp872
g56
(g77
g58
NtRp873
(dp874
g61
(dp875
g81
g82
ssg70
g869
sg63
(lp876
S'cmd_args'
p877
asbag56
(g77
g58
NtRp878
(dp879
g61
(dp880
g88
g89
ssg70
g869
sg63
(lp881
S':'
asbag56
(g77
g58
NtRp882
(dp883
g61
(dp884
sg70
g869
sg63
(lp885
g56
(g57
g58
NtRp886
(dp887
g61
(dp888
g69
I4
ssg70
g882
sg63
(lp889
g56
(g65
g58
NtRp890
(dp891
g61
(dp892
g69
I3
ssg70
Nsg63
(lp893
sbasbasbasbag56
(g72
g58
NtRp894
(dp895
g61
(dp896
sg70
g821
sg63
(lp897
g56
(g77
g58
NtRp898
(dp899
g61
(dp900
g81
g82
ssg70
g894
sg63
(lp901
S'cmd_options'
p902
asbag56
(g77
g58
NtRp903
(dp904
g61
(dp905
g88
g89
ssg70
g894
sg63
(lp906
S':'
asbag56
(g77
g58
NtRp907
(dp908
g61
(dp909
sg70
g894
sg63
(lp910
g56
(g57
g58
NtRp911
(dp912
g61
(dp913
g69
I4
ssg70
g907
sg63
(lp914
S"<Values at 0x2ddf128: {'verbose': False, 'ip': '127.0.0.1', 'shutdown_timeout': 5, 'taskbar': False, 'nocron': False, 'pid_filename': 'httpserver.pid', 'maxthreads': None, 'softcron': False, 'server_name': 'kaique-Pine-Trail-M', 'bpython': False, 'nogui': False, 'port': 8000, 'extcron': False, 'debuglevel': 30, 'test': None, 'folder': '/home/kaique/Projects/web2py', 'config': '', 'import_models': False, 'winservice': '', 'shell': None, 'run': '', 'log_filename': 'httpserver.log', 'args': [''], 'ssl_ca_certificate': None, 'scheduler': None, 'profiler_filename': None, 'ssl_private_key': '', 'password': 'dev', 'request_queue_size': 5, 'ssl_certificate': '', 'cronjob': False, 'plain': False, 'quiet': False, 'interfaces': None, 'minthreads': None, 'timeout': 10, 'numthreads': None, 'nobanner': False}>"
p915
asbasbasbag56
(g72
g58
NtRp916
(dp917
g61
(dp918
sg70
g821
sg63
(lp919
g56
(g77
g58
NtRp920
(dp921
g61
(dp922
g81
g82
ssg70
g916
sg63
(lp923
S'db_sessions'
p924
asbag56
(g77
g58
NtRp925
(dp926
g61
(dp927
g88
g89
ssg70
g916
sg63
(lp928
S':'
asbag56
(g77
g58
NtRp929
(dp930
g61
(dp931
sg70
g916
sg63
(lp932
g56
(g57
g58
NtRp933
(dp934
g61
(dp935
g69
I4
ssg70
g929
sg63
(lp936
S'set([])'
p937
asbasbasbag56
(g72
g58
NtRp938
(dp939
g61
(dp940
sg70
g821
sg63
(lp941
g56
(g77
g58
NtRp942
(dp943
g61
(dp944
g81
g82
ssg70
g938
sg63
(lp945
S'debugging'
p946
asbag56
(g77
g58
NtRp947
(dp948
g61
(dp949
g88
g89
ssg70
g938
sg63
(lp950
S':'
asbag56
(g77
g58
NtRp951
(dp952
g61
(dp953
sg70
g938
sg63
(lp954
g56
(g57
g58
NtRp955
(dp956
g61
(dp957
g69
I4
ssg70
g951
sg63
(lp958
g99
asbasbasbag56
(g72
g58
NtRp959
(dp960
g61
(dp961
sg70
g821
sg63
(lp962
g56
(g77
g58
NtRp963
(dp964
g61
(dp965
g81
g82
ssg70
g959
sg63
(lp966
S'gluon_parent'
p967
asbag56
(g77
g58
NtRp968
(dp969
g61
(dp970
g88
g89
ssg70
g959
sg63
(lp971
S':'
asbag56
(g77
g58
NtRp972
(dp973
g61
(dp974
sg70
g959
sg63
(lp975
g56
(g57
g58
NtRp976
(dp977
g61
(dp978
g69
I4
ssg70
g972
sg63
(lp979
S'/home/kaique/Projects/web2py'
p980
asbasbasbag56
(g72
g58
NtRp981
(dp982
g61
(dp983
sg70
g821
sg63
(lp984
g56
(g77
g58
NtRp985
(dp986
g61
(dp987
g81
g82
ssg70
g981
sg63
(lp988
S'http_accept'
p989
asbag56
(g77
g58
NtRp990
(dp991
g61
(dp992
g88
g89
ssg70
g981
sg63
(lp993
S':'
asbag56
(g77
g58
NtRp994
(dp995
g61
(dp996
sg70
g981
sg63
(lp997
g56
(g57
g58
NtRp998
(dp999
g61
(dp1000
g69
I4
ssg70
g994
sg63
(lp1001
S'text/html,application/xhtml+xml,application/xml;q=0.9,*/*;q=0.8'
p1002
asbasbasbag56
(g72
g58
NtRp1003
(dp1004
g61
(dp1005
sg70
g821
sg63
(lp1006
g56
(g77
g58
NtRp1007
(dp1008
g61
(dp1009
g81
g82
ssg70
g1003
sg63
(lp1010
S'http_accept_charset'
p1011
asbag56
(g77
g58
NtRp1012
(dp1013
g61
(dp1014
g88
g89
ssg70
g1003
sg63
(lp1015
S':'
asbag56
(g77
g58
NtRp1016
(dp1017
g61
(dp1018
sg70
g1003
sg63
(lp1019
g56
(g57
g58
NtRp1020
(dp1021
g61
(dp1022
g69
I4
ssg70
g1016
sg63
(lp1023
S'UTF-8,*;q=0.5'
p1024
asbasbasbag56
(g72
g58
NtRp1025
(dp1026
g61
(dp1027
sg70
g821
sg63
(lp1028
g56
(g77
g58
NtRp1029
(dp1030
g61
(dp1031
g81
g82
ssg70
g1025
sg63
(lp1032
S'http_accept_encoding'
p1033
asbag56
(g77
g58
NtRp1034
(dp1035
g61
(dp1036
g88
g89
ssg70
g1025
sg63
(lp1037
S':'
asbag56
(g77
g58
NtRp1038
(dp1039
g61
(dp1040
sg70
g1025
sg63
(lp1041
g56
(g57
g58
NtRp1042
(dp1043
g61
(dp1044
g69
I4
ssg70
g1038
sg63
(lp1045
S'gzip,deflate,sdch'
p1046
asbasbasbag56
(g72
g58
NtRp1047
(dp1048
g61
(dp1049
sg70
g821
sg63
(lp1050
g56
(g77
g58
NtRp1051
(dp1052
g61
(dp1053
g81
g82
ssg70
g1047
sg63
(lp1054
S'http_accept_language'
p1055
asbag56
(g77
g58
NtRp1056
(dp1057
g61
(dp1058
g88
g89
ssg70
g1047
sg63
(lp1059
S':'
asbag56
(g77
g58
NtRp1060
(dp1061
g61
(dp1062
sg70
g1047
sg63
(lp1063
g56
(g57
g58
NtRp1064
(dp1065
g61
(dp1066
g69
I4
ssg70
g1060
sg63
(lp1067
S'pt-BR,pt;q=0.8,en-US;q=0.6,en;q=0.4'
p1068
asbasbasbag56
(g72
g58
NtRp1069
(dp1070
g61
(dp1071
sg70
g821
sg63
(lp1072
g56
(g77
g58
NtRp1073
(dp1074
g61
(dp1075
g81
g82
ssg70
g1069
sg63
(lp1076
S'http_cache_control'
p1077
asbag56
(g77
g58
NtRp1078
(dp1079
g61
(dp1080
g88
g89
ssg70
g1069
sg63
(lp1081
S':'
asbag56
(g77
g58
NtRp1082
(dp1083
g61
(dp1084
sg70
g1069
sg63
(lp1085
g56
(g57
g58
NtRp1086
(dp1087
g61
(dp1088
g69
I4
ssg70
g1082
sg63
(lp1089
S'max-age=0'
p1090
asbasbasbag56
(g72
g58
NtRp1091
(dp1092
g61
(dp1093
sg70
g821
sg63
(lp1094
g56
(g77
g58
NtRp1095
(dp1096
g61
(dp1097
g81
g82
ssg70
g1091
sg63
(lp1098
S'http_connection'
p1099
asbag56
(g77
g58
NtRp1100
(dp1101
g61
(dp1102
g88
g89
ssg70
g1091
sg63
(lp1103
S':'
asbag56
(g77
g58
NtRp1104
(dp1105
g61
(dp1106
sg70
g1091
sg63
(lp1107
g56
(g57
g58
NtRp1108
(dp1109
g61
(dp1110
g69
I4
ssg70
g1104
sg63
(lp1111
S'keep-alive'
p1112
asbasbasbag56
(g72
g58
NtRp1113
(dp1114
g61
(dp1115
sg70
g821
sg63
(lp1116
g56
(g77
g58
NtRp1117
(dp1118
g61
(dp1119
g81
g82
ssg70
g1113
sg63
(lp1120
S'http_cookie'
p1121
asbag56
(g77
g58
NtRp1122
(dp1123
g61
(dp1124
g88
g89
ssg70
g1113
sg63
(lp1125
S':'
asbag56
(g77
g58
NtRp1126
(dp1127
g61
(dp1128
sg70
g1113
sg63
(lp1129
g56
(g57
g58
NtRp1130
(dp1131
g61
(dp1132
g69
I4
ssg70
g1126
sg63
(lp1133
S'session_id_welcome=127.0.0.1-14c5c22f-ffb2-45c6-9b17-d7d48251db8d; session_id_admin=127.0.0.1-1d8f0d6b-272d-4ecd-9aa3-55aca57a23e5; session_id_gaviao_peixoto=127.0.0.1-2dbbd842-4586-4cc4-b35d-dcb540cccb0a'
p1134
asbasbasbag56
(g72
g58
NtRp1135
(dp1136
g61
(dp1137
sg70
g821
sg63
(lp1138
g56
(g77
g58
NtRp1139
(dp1140
g61
(dp1141
g81
g82
ssg70
g1135
sg63
(lp1142
S'http_host'
p1143
asbag56
(g77
g58
NtRp1144
(dp1145
g61
(dp1146
g88
g89
ssg70
g1135
sg63
(lp1147
S':'
asbag56
(g77
g58
NtRp1148
(dp1149
g61
(dp1150
sg70
g1135
sg63
(lp1151
g56
(g57
g58
NtRp1152
(dp1153
g61
(dp1154
g69
I4
ssg70
g1148
sg63
(lp1155
S'127.0.0.1:8000'
p1156
asbasbasbag56
(g72
g58
NtRp1157
(dp1158
g61
(dp1159
sg70
g821
sg63
(lp1160
g56
(g77
g58
NtRp1161
(dp1162
g61
(dp1163
g81
g82
ssg70
g1157
sg63
(lp1164
S'http_referer'
p1165
asbag56
(g77
g58
NtRp1166
(dp1167
g61
(dp1168
g88
g89
ssg70
g1157
sg63
(lp1169
S':'
asbag56
(g77
g58
NtRp1170
(dp1171
g61
(dp1172
sg70
g1157
sg63
(lp1173
g56
(g57
g58
NtRp1174
(dp1175
g61
(dp1176
g69
I4
ssg70
g1170
sg63
(lp1177
S'http://127.0.0.1:8000/admin/default/design/gaviao_peixoto'
p1178
asbasbasbag56
(g72
g58
NtRp1179
(dp1180
g61
(dp1181
sg70
g821
sg63
(lp1182
g56
(g77
g58
NtRp1183
(dp1184
g61
(dp1185
g81
g82
ssg70
g1179
sg63
(lp1186
S'http_user_agent'
p1187
asbag56
(g77
g58
NtRp1188
(dp1189
g61
(dp1190
g88
g89
ssg70
g1179
sg63
(lp1191
S':'
asbag56
(g77
g58
NtRp1192
(dp1193
g61
(dp1194
sg70
g1179
sg63
(lp1195
g56
(g57
g58
NtRp1196
(dp1197
g61
(dp1198
g69
I4
ssg70
g1192
sg63
(lp1199
S'Mozilla/5.0 (X11; Linux x86_64) AppleWebKit/535.2 (KHTML, like Gecko) Chrome/15.0.874.106 Safari/535.2'
p1200
asbasbasbag56
(g72
g58
NtRp1201
(dp1202
g61
(dp1203
sg70
g821
sg63
(lp1204
g56
(g77
g58
NtRp1205
(dp1206
g61
(dp1207
g81
g82
ssg70
g1201
sg63
(lp1208
S'is_jython'
p1209
asbag56
(g77
g58
NtRp1210
(dp1211
g61
(dp1212
g88
g89
ssg70
g1201
sg63
(lp1213
S':'
asbag56
(g77
g58
NtRp1214
(dp1215
g61
(dp1216
sg70
g1201
sg63
(lp1217
g56
(g57
g58
NtRp1218
(dp1219
g61
(dp1220
g69
I4
ssg70
g1214
sg63
(lp1221
g99
asbasbasbag56
(g72
g58
NtRp1222
(dp1223
g61
(dp1224
sg70
g821
sg63
(lp1225
g56
(g77
g58
NtRp1226
(dp1227
g61
(dp1228
g81
g82
ssg70
g1222
sg63
(lp1229
S'path_info'
p1230
asbag56
(g77
g58
NtRp1231
(dp1232
g61
(dp1233
g88
g89
ssg70
g1222
sg63
(lp1234
S':'
asbag56
(g77
g58
NtRp1235
(dp1236
g61
(dp1237
sg70
g1222
sg63
(lp1238
g56
(g57
g58
NtRp1239
(dp1240
g61
(dp1241
g69
I4
ssg70
g1235
sg63
(lp1242
S'/gaviao_peixoto/default/index'
p1243
asbasbasbag56
(g72
g58
NtRp1244
(dp1245
g61
(dp1246
sg70
g821
sg63
(lp1247
g56
(g77
g58
NtRp1248
(dp1249
g61
(dp1250
g81
g82
ssg70
g1244
sg63
(lp1251
S'query_string'
p1252
asbag56
(g77
g58
NtRp1253
(dp1254
g61
(dp1255
g88
g89
ssg70
g1244
sg63
(lp1256
S':'
asbag56
(g77
g58
NtRp1257
(dp1258
g61
(dp1259
sg70
g1244
sg63
(lp1260
g56
(g57
g58
NtRp1261
(dp1262
g61
(dp1263
g69
I4
ssg70
g1257
sg63
(lp1264
S''
asbasbasbag56
(g72
g58
NtRp1265
(dp1266
g61
(dp1267
sg70
g821
sg63
(lp1268
g56
(g77
g58
NtRp1269
(dp1270
g61
(dp1271
g81
g82
ssg70
g1265
sg63
(lp1272
S'remote_addr'
p1273
asbag56
(g77
g58
NtRp1274
(dp1275
g61
(dp1276
g88
g89
ssg70
g1265
sg63
(lp1277
S':'
asbag56
(g77
g58
NtRp1278
(dp1279
g61
(dp1280
sg70
g1265
sg63
(lp1281
g56
(g57
g58
NtRp1282
(dp1283
g61
(dp1284
g69
I4
ssg70
g1278
sg63
(lp1285
g189
asbasbasbag56
(g72
g58
NtRp1286
(dp1287
g61
(dp1288
sg70
g821
sg63
(lp1289
g56
(g77
g58
NtRp1290
(dp1291
g61
(dp1292
g81
g82
ssg70
g1286
sg63
(lp1293
S'remote_port'
p1294
asbag56
(g77
g58
NtRp1295
(dp1296
g61
(dp1297
g88
g89
ssg70
g1286
sg63
(lp1298
S':'
asbag56
(g77
g58
NtRp1299
(dp1300
g61
(dp1301
sg70
g1286
sg63
(lp1302
g56
(g57
g58
NtRp1303
(dp1304
g61
(dp1305
g69
I4
ssg70
g1299
sg63
(lp1306
S'41413'
p1307
asbasbasbag56
(g72
g58
NtRp1308
(dp1309
g61
(dp1310
sg70
g821
sg63
(lp1311
g56
(g77
g58
NtRp1312
(dp1313
g61
(dp1314
g81
g82
ssg70
g1308
sg63
(lp1315
S'request_method'
p1316
asbag56
(g77
g58
NtRp1317
(dp1318
g61
(dp1319
g88
g89
ssg70
g1308
sg63
(lp1320
S':'
asbag56
(g77
g58
NtRp1321
(dp1322
g61
(dp1323
sg70
g1308
sg63
(lp1324
g56
(g57
g58
NtRp1325
(dp1326
g61
(dp1327
g69
I4
ssg70
g1321
sg63
(lp1328
S'GET'
p1329
asbasbasbag56
(g72
g58
NtRp1330
(dp1331
g61
(dp1332
sg70
g821
sg63
(lp1333
g56
(g77
g58
NtRp1334
(dp1335
g61
(dp1336
g81
g82
ssg70
g1330
sg63
(lp1337
S'script_name'
p1338
asbag56
(g77
g58
NtRp1339
(dp1340
g61
(dp1341
g88
g89
ssg70
g1330
sg63
(lp1342
S':'
asbag56
(g77
g58
NtRp1343
(dp1344
g61
(dp1345
sg70
g1330
sg63
(lp1346
g56
(g57
g58
NtRp1347
(dp1348
g61
(dp1349
g69
I4
ssg70
g1343
sg63
(lp1350
S''
asbasbasbag56
(g72
g58
NtRp1351
(dp1352
g61
(dp1353
sg70
g821
sg63
(lp1354
g56
(g77
g58
NtRp1355
(dp1356
g61
(dp1357
g81
g82
ssg70
g1351
sg63
(lp1358
S'server_name'
p1359
asbag56
(g77
g58
NtRp1360
(dp1361
g61
(dp1362
g88
g89
ssg70
g1351
sg63
(lp1363
S':'
asbag56
(g77
g58
NtRp1364
(dp1365
g61
(dp1366
sg70
g1351
sg63
(lp1367
g56
(g57
g58
NtRp1368
(dp1369
g61
(dp1370
g69
I4
ssg70
g1364
sg63
(lp1371
S'kaique-Pine-Trail-M'
p1372
asbasbasbag56
(g72
g58
NtRp1373
(dp1374
g61
(dp1375
sg70
g821
sg63
(lp1376
g56
(g77
g58
NtRp1377
(dp1378
g61
(dp1379
g81
g82
ssg70
g1373
sg63
(lp1380
S'server_port'
p1381
asbag56
(g77
g58
NtRp1382
(dp1383
g61
(dp1384
g88
g89
ssg70
g1373
sg63
(lp1385
S':'
asbag56
(g77
g58
NtRp1386
(dp1387
g61
(dp1388
sg70
g1373
sg63
(lp1389
g56
(g57
g58
NtRp1390
(dp1391
g61
(dp1392
g69
I4
ssg70
g1386
sg63
(lp1393
S'8000'
p1394
asbasbasbag56
(g72
g58
NtRp1395
(dp1396
g61
(dp1397
sg70
g821
sg63
(lp1398
g56
(g77
g58
NtRp1399
(dp1400
g61
(dp1401
g81
g82
ssg70
g1395
sg63
(lp1402
S'server_protocol'
p1403
asbag56
(g77
g58
NtRp1404
(dp1405
g61
(dp1406
g88
g89
ssg70
g1395
sg63
(lp1407
S':'
asbag56
(g77
g58
NtRp1408
(dp1409
g61
(dp1410
sg70
g1395
sg63
(lp1411
g56
(g57
g58
NtRp1412
(dp1413
g61
(dp1414
g69
I4
ssg70
g1408
sg63
(lp1415
S'HTTP/1.1'
p1416
asbasbasbag56
(g72
g58
NtRp1417
(dp1418
g61
(dp1419
sg70
g821
sg63
(lp1420
g56
(g77
g58
NtRp1421
(dp1422
g61
(dp1423
g81
g82
ssg70
g1417
sg63
(lp1424
S'server_software'
p1425
asbag56
(g77
g58
NtRp1426
(dp1427
g61
(dp1428
g88
g89
ssg70
g1417
sg63
(lp1429
S':'
asbag56
(g77
g58
NtRp1430
(dp1431
g61
(dp1432
sg70
g1417
sg63
(lp1433
g56
(g57
g58
NtRp1434
(dp1435
g61
(dp1436
g69
I4
ssg70
g1430
sg63
(lp1437
S'Rocket 1.2.4'
p1438
asbasbasbag56
(g72
g58
NtRp1439
(dp1440
g61
(dp1441
sg70
g821
sg63
(lp1442
g56
(g77
g58
NtRp1443
(dp1444
g61
(dp1445
g81
g82
ssg70
g1439
sg63
(lp1446
S'web2py_crontype'
p1447
asbag56
(g77
g58
NtRp1448
(dp1449
g61
(dp1450
g88
g89
ssg70
g1439
sg63
(lp1451
S':'
asbag56
(g77
g58
NtRp1452
(dp1453
g61
(dp1454
sg70
g1439
sg63
(lp1455
g56
(g57
g58
NtRp1456
(dp1457
g61
(dp1458
g69
I4
ssg70
g1452
sg63
(lp1459
S'hard'
p1460
asbasbasbag56
(g72
g58
NtRp1461
(dp1462
g61
(dp1463
sg70
g821
sg63
(lp1464
g56
(g77
g58
NtRp1465
(dp1466
g61
(dp1467
g81
g82
ssg70
g1461
sg63
(lp1468
S'web2py_path'
p1469
asbag56
(g77
g58
NtRp1470
(dp1471
g61
(dp1472
g88
g89
ssg70
g1461
sg63
(lp1473
S':'
asbag56
(g77
g58
NtRp1474
(dp1475
g61
(dp1476
sg70
g1461
sg63
(lp1477
g56
(g57
g58
NtRp1478
(dp1479
g61
(dp1480
g69
I4
ssg70
g1474
sg63
(lp1481
g868
asbasbasbag56
(g72
g58
NtRp1482
(dp1483
g61
(dp1484
sg70
g821
sg63
(lp1485
g56
(g77
g58
NtRp1486
(dp1487
g61
(dp1488
g81
g82
ssg70
g1482
sg63
(lp1489
S'web2py_version'
p1490
asbag56
(g77
g58
NtRp1491
(dp1492
g61
(dp1493
g88
g89
ssg70
g1482
sg63
(lp1494
S':'
asbag56
(g77
g58
NtRp1495
(dp1496
g61
(dp1497
sg70
g1482
sg63
(lp1498
g56
(g57
g58
NtRp1499
(dp1500
g61
(dp1501
g69
I4
ssg70
g1495
sg63
(lp1502
g56
(g65
g58
NtRp1503
(dp1504
g61
(dp1505
g69
I3
ssg70
Nsg63
(lp1506
g56
(g72
g58
NtRp1507
(dp1508
g61
(dp1509
sg70
g1503
sg63
(lp1510
g56
(g77
g58
NtRp1511
(dp1512
g61
(dp1513
sg70
g1507
sg63
(lp1514
g56
(g57
g58
NtRp1515
(dp1516
g61
(dp1517
g69
I3
ssg70
g1511
sg63
(lp1518
S'1'
asbasbasbag56
(g72
g58
NtRp1519
(dp1520
g61
(dp1521
sg70
g1503
sg63
(lp1522
g56
(g77
g58
NtRp1523
(dp1524
g61
(dp1525
sg70
g1519
sg63
(lp1526
g56
(g57
g58
NtRp1527
(dp1528
g61
(dp1529
g69
I3
ssg70
g1523
sg63
(lp1530
S'99'
p1531
asbasbasbag56
(g72
g58
NtRp1532
(dp1533
g61
(dp1534
sg70
g1503
sg63
(lp1535
g56
(g77
g58
NtRp1536
(dp1537
g61
(dp1538
sg70
g1532
sg63
(lp1539
g56
(g57
g58
NtRp1540
(dp1541
g61
(dp1542
g69
I3
ssg70
g1536
sg63
(lp1543
S'2'
asbasbasbag56
(g72
g58
NtRp1544
(dp1545
g61
(dp1546
sg70
g1503
sg63
(lp1547
g56
(g77
g58
NtRp1548
(dp1549
g61
(dp1550
sg70
g1544
sg63
(lp1551
g56
(g57
g58
NtRp1552
(dp1553
g61
(dp1554
g69
I3
ssg70
g1548
sg63
(lp1555
S'datetime.datetime(2011, 9, 26, 6, 55, 33)'
p1556
asbasbasbag56
(g72
g58
NtRp1557
(dp1558
g61
(dp1559
sg70
g1503
sg63
(lp1560
g56
(g77
g58
NtRp1561
(dp1562
g61
(dp1563
sg70
g1557
sg63
(lp1564
g56
(g57
g58
NtRp1565
(dp1566
g61
(dp1567
g69
I3
ssg70
g1561
sg63
(lp1568
S'stable'
p1569
asbasbasbasbasbasbasbag56
(g72
g58
NtRp1570
(dp1571
g61
(dp1572
sg70
g821
sg63
(lp1573
g56
(g77
g58
NtRp1574
(dp1575
g61
(dp1576
g81
g82
ssg70
g1570
sg63
(lp1577
S'wsgi_errors'
p1578
asbag56
(g77
g58
NtRp1579
(dp1580
g61
(dp1581
g88
g89
ssg70
g1570
sg63
(lp1582
S':'
asbag56
(g77
g58
NtRp1583
(dp1584
g61
(dp1585
sg70
g1570
sg63
(lp1586
g56
(g57
g58
NtRp1587
(dp1588
g61
(dp1589
g69
I4
ssg70
g1583
sg63
(lp1590
S"<open file '<stderr>', mode 'w' at 0x7f175f145270>"
p1591
asbasbasbag56
(g72
g58
NtRp1592
(dp1593
g61
(dp1594
sg70
g821
sg63
(lp1595
g56
(g77
g58
NtRp1596
(dp1597
g61
(dp1598
g81
g82
ssg70
g1592
sg63
(lp1599
S'wsgi_file_wrapper'
p1600
asbag56
(g77
g58
NtRp1601
(dp1602
g61
(dp1603
g88
g89
ssg70
g1592
sg63
(lp1604
S':'
asbag56
(g77
g58
NtRp1605
(dp1606
g61
(dp1607
sg70
g1592
sg63
(lp1608
g56
(g57
g58
NtRp1609
(dp1610
g61
(dp1611
g69
I4
ssg70
g1605
sg63
(lp1612
S'<class wsgiref.util.FileWrapper at 0x2cefdb8>'
p1613
asbasbasbag56
(g72
g58
NtRp1614
(dp1615
g61
(dp1616
sg70
g821
sg63
(lp1617
g56
(g77
g58
NtRp1618
(dp1619
g61
(dp1620
g81
g82
ssg70
g1614
sg63
(lp1621
S'wsgi_input'
p1622
asbag56
(g77
g58
NtRp1623
(dp1624
g61
(dp1625
g88
g89
ssg70
g1614
sg63
(lp1626
S':'
asbag56
(g77
g58
NtRp1627
(dp1628
g61
(dp1629
sg70
g1614
sg63
(lp1630
g56
(g57
g58
NtRp1631
(dp1632
g61
(dp1633
g69
I4
ssg70
g1627
sg63
(lp1634
S'<socket._fileobject object at 0x2f97dd0>'
p1635
asbasbasbag56
(g72
g58
NtRp1636
(dp1637
g61
(dp1638
sg70
g821
sg63
(lp1639
g56
(g77
g58
NtRp1640
(dp1641
g61
(dp1642
g81
g82
ssg70
g1636
sg63
(lp1643
S'wsgi_multiprocess'
p1644
asbag56
(g77
g58
NtRp1645
(dp1646
g61
(dp1647
g88
g89
ssg70
g1636
sg63
(lp1648
S':'
asbag56
(g77
g58
NtRp1649
(dp1650
g61
(dp1651
sg70
g1636
sg63
(lp1652
g56
(g57
g58
NtRp1653
(dp1654
g61
(dp1655
g69
I4
ssg70
g1649
sg63
(lp1656
g99
asbasbasbag56
(g72
g58
NtRp1657
(dp1658
g61
(dp1659
sg70
g821
sg63
(lp1660
g56
(g77
g58
NtRp1661
(dp1662
g61
(dp1663
g81
g82
ssg70
g1657
sg63
(lp1664
S'wsgi_multithread'
p1665
asbag56
(g77
g58
NtRp1666
(dp1667
g61
(dp1668
g88
g89
ssg70
g1657
sg63
(lp1669
S':'
asbag56
(g77
g58
NtRp1670
(dp1671
g61
(dp1672
sg70
g1657
sg63
(lp1673
g56
(g57
g58
NtRp1674
(dp1675
g61
(dp1676
g69
I4
ssg70
g1670
sg63
(lp1677
S'True'
p1678
asbasbasbag56
(g72
g58
NtRp1679
(dp1680
g61
(dp1681
sg70
g821
sg63
(lp1682
g56
(g77
g58
NtRp1683
(dp1684
g61
(dp1685
g81
g82
ssg70
g1679
sg63
(lp1686
S'wsgi_run_once'
p1687
asbag56
(g77
g58
NtRp1688
(dp1689
g61
(dp1690
g88
g89
ssg70
g1679
sg63
(lp1691
S':'
asbag56
(g77
g58
NtRp1692
(dp1693
g61
(dp1694
sg70
g1679
sg63
(lp1695
g56
(g57
g58
NtRp1696
(dp1697
g61
(dp1698
g69
I4
ssg70
g1692
sg63
(lp1699
g99
asbasbasbag56
(g72
g58
NtRp1700
(dp1701
g61
(dp1702
sg70
g821
sg63
(lp1703
g56
(g77
g58
NtRp1704
(dp1705
g61
(dp1706
g81
g82
ssg70
g1700
sg63
(lp1707
S'wsgi_url_scheme'
p1708
asbag56
(g77
g58
NtRp1709
(dp1710
g61
(dp1711
g88
g89
ssg70
g1700
sg63
(lp1712
S':'
asbag56
(g77
g58
NtRp1713
(dp1714
g61
(dp1715
sg70
g1700
sg63
(lp1716
g56
(g57
g58
NtRp1717
(dp1718
g61
(dp1719
g69
I4
ssg70
g1713
sg63
(lp1720
S'http'
p1721
asbasbasbag56
(g72
g58
NtRp1722
(dp1723
g61
(dp1724
sg70
g821
sg63
(lp1725
g56
(g77
g58
NtRp1726
(dp1727
g61
(dp1728
g81
g82
ssg70
g1722
sg63
(lp1729
S'wsgi_version'
p1730
asbag56
(g77
g58
NtRp1731
(dp1732
g61
(dp1733
g88
g89
ssg70
g1722
sg63
(lp1734
S':'
asbag56
(g77
g58
NtRp1735
(dp1736
g61
(dp1737
sg70
g1722
sg63
(lp1738
g56
(g57
g58
NtRp1739
(dp1740
g61
(dp1741
g69
I4
ssg70
g1735
sg63
(lp1742
g56
(g65
g58
NtRp1743
(dp1744
g61
(dp1745
g69
I3
ssg70
Nsg63
(lp1746
g56
(g72
g58
NtRp1747
(dp1748
g61
(dp1749
sg70
g1743
sg63
(lp1750
g56
(g77
g58
NtRp1751
(dp1752
g61
(dp1753
sg70
g1747
sg63
(lp1754
g56
(g57
g58
NtRp1755
(dp1756
g61
(dp1757
g69
I3
ssg70
g1751
sg63
(lp1758
S'1'
asbasbasbag56
(g72
g58
NtRp1759
(dp1760
g61
(dp1761
sg70
g1743
sg63
(lp1762
g56
(g77
g58
NtRp1763
(dp1764
g61
(dp1765
sg70
g1759
sg63
(lp1766
g56
(g57
g58
NtRp1767
(dp1768
g61
(dp1769
g69
I3
ssg70
g1763
sg63
(lp1770
S'0'
asbasbasbasbasbasbasbasbasbasbasbag56
(g72
g58
NtRp1771
(dp1772
g61
(dp1773
sg70
g66
sg63
(lp1774
g56
(g77
g58
NtRp1775
(dp1776
g61
(dp1777
g81
g82
ssg70
g1771
sg63
(lp1778
S'extension'
p1779
asbag56
(g77
g58
NtRp1780
(dp1781
g61
(dp1782
g88
g89
ssg70
g1771
sg63
(lp1783
S':'
asbag56
(g77
g58
NtRp1784
(dp1785
g61
(dp1786
sg70
g1771
sg63
(lp1787
g56
(g57
g58
NtRp1788
(dp1789
g61
(dp1790
g69
I5
ssg70
g1784
sg63
(lp1791
S'html'
p1792
asbasbasbag56
(g72
g58
NtRp1793
(dp1794
g61
(dp1795
sg70
g66
sg63
(lp1796
g56
(g77
g58
NtRp1797
(dp1798
g61
(dp1799
g81
g82
ssg70
g1793
sg63
(lp1800
S'folder'
p1801
asbag56
(g77
g58
NtRp1802
(dp1803
g61
(dp1804
g88
g89
ssg70
g1793
sg63
(lp1805
S':'
asbag56
(g77
g58
NtRp1806
(dp1807
g61
(dp1808
sg70
g1793
sg63
(lp1809
g56
(g57
g58
NtRp1810
(dp1811
g61
(dp1812
g69
I5
ssg70
g1806
sg63
(lp1813
S'/home/kaique/Projects/web2py/applications/gaviao_peixoto/'
p1814
asbasbasbag56
(g72
g58
NtRp1815
(dp1816
g61
(dp1817
sg70
g66
sg63
(lp1818
g56
(g77
g58
NtRp1819
(dp1820
g61
(dp1821
g81
g82
ssg70
g1815
sg63
(lp1822
S'function'
p1823
asbag56
(g77
g58
NtRp1824
(dp1825
g61
(dp1826
g88
g89
ssg70
g1815
sg63
(lp1827
S':'
asbag56
(g77
g58
NtRp1828
(dp1829
g61
(dp1830
sg70
g1815
sg63
(lp1831
g56
(g57
g58
NtRp1832
(dp1833
g61
(dp1834
g69
I5
ssg70
g1828
sg63
(lp1835
S'index'
p1836
asbasbasbag56
(g72
g58
NtRp1837
(dp1838
g61
(dp1839
sg70
g66
sg63
(lp1840
g56
(g77
g58
NtRp1841
(dp1842
g61
(dp1843
g81
g82
ssg70
g1837
sg63
(lp1844
S'get_vars'
p1845
asbag56
(g77
g58
NtRp1846
(dp1847
g61
(dp1848
g88
g89
ssg70
g1837
sg63
(lp1849
S':'
asbag56
(g77
g58
NtRp1850
(dp1851
g61
(dp1852
sg70
g1837
sg63
(lp1853
g56
(g57
g58
NtRp1854
(dp1855
g61
(dp1856
g69
I5
ssg70
g1850
sg63
(lp1857
g56
(g65
g58
NtRp1858
(dp1859
g61
(dp1860
g69
I4
ssg70
Nsg63
(lp1861
sbasbasbasbag56
(g72
g58
NtRp1862
(dp1863
g61
(dp1864
sg70
g66
sg63
(lp1865
g56
(g77
g58
NtRp1866
(dp1867
g61
(dp1868
g81
g82
ssg70
g1862
sg63
(lp1869
S'global_settings'
p1870
asbag56
(g77
g58
NtRp1871
(dp1872
g61
(dp1873
g88
g89
ssg70
g1862
sg63
(lp1874
S':'
asbag56
(g77
g58
NtRp1875
(dp1876
g61
(dp1877
sg70
g1862
sg63
(lp1878
g56
(g57
g58
NtRp1879
(dp1880
g61
(dp1881
g69
I5
ssg70
g1875
sg63
(lp1882
g56
(g65
g58
NtRp1883
(dp1884
g61
(dp1885
g69
I4
ssg70
Nsg63
(lp1886
g56
(g72
g58
NtRp1887
(dp1888
g61
(dp1889
sg70
g1883
sg63
(lp1890
g56
(g77
g58
NtRp1891
(dp1892
g61
(dp1893
g81
g82
ssg70
g1887
sg63
(lp1894
g833
asbag56
(g77
g58
NtRp1895
(dp1896
g61
(dp1897
g88
g89
ssg70
g1887
sg63
(lp1898
S':'
asbag56
(g77
g58
NtRp1899
(dp1900
g61
(dp1901
sg70
g1887
sg63
(lp1902
g56
(g57
g58
NtRp1903
(dp1904
g61
(dp1905
g69
I4
ssg70
g1899
sg63
(lp1906
S"set(['/home/kaique/Projects/web2py/applications/welcome/', '/home/kaique/Projects/web2py/applications/admin/', '/home/kaique/Projects/web2py/applications/gaviao_peixoto/'])"
p1907
asbasbasbag56
(g72
g58
NtRp1908
(dp1909
g61
(dp1910
sg70
g1883
sg63
(lp1911
g56
(g77
g58
NtRp1912
(dp1913
g61
(dp1914
g81
g82
ssg70
g1908
sg63
(lp1915
g855
asbag56
(g77
g58
NtRp1916
(dp1917
g61
(dp1918
g88
g89
ssg70
g1908
sg63
(lp1919
S':'
asbag56
(g77
g58
NtRp1920
(dp1921
g61
(dp1922
sg70
g1908
sg63
(lp1923
g56
(g57
g58
NtRp1924
(dp1925
g61
(dp1926
g69
I4
ssg70
g1920
sg63
(lp1927
g868
asbasbasbag56
(g72
g58
NtRp1928
(dp1929
g61
(dp1930
sg70
g1883
sg63
(lp1931
g56
(g77
g58
NtRp1932
(dp1933
g61
(dp1934
g81
g82
ssg70
g1928
sg63
(lp1935
g877
asbag56
(g77
g58
NtRp1936
(dp1937
g61
(dp1938
g88
g89
ssg70
g1928
sg63
(lp1939
S':'
asbag56
(g77
g58
NtRp1940
(dp1941
g61
(dp1942
sg70
g1928
sg63
(lp1943
g56
(g57
g58
NtRp1944
(dp1945
g61
(dp1946
g69
I4
ssg70
g1940
sg63
(lp1947
g56
(g65
g58
NtRp1948
(dp1949
g61
(dp1950
g69
I3
ssg70
Nsg63
(lp1951
sbasbasbasbag56
(g72
g58
NtRp1952
(dp1953
g61
(dp1954
sg70
g1883
sg63
(lp1955
g56
(g77
g58
NtRp1956
(dp1957
g61
(dp1958
g81
g82
ssg70
g1952
sg63
(lp1959
g902
asbag56
(g77
g58
NtRp1960
(dp1961
g61
(dp1962
g88
g89
ssg70
g1952
sg63
(lp1963
S':'
asbag56
(g77
g58
NtRp1964
(dp1965
g61
(dp1966
sg70
g1952
sg63
(lp1967
g56
(g57
g58
NtRp1968
(dp1969
g61
(dp1970
g69
I4
ssg70
g1964
sg63
(lp1971
S"<Values at 0x2ddf128: {'verbose': False, 'ip': '127.0.0.1', 'shutdown_timeout': 5, 'taskbar': False, 'nocron': False, 'pid_filename': 'httpserver.pid', 'maxthreads': None, 'softcron': False, 'server_name': 'kaique-Pine-Trail-M', 'bpython': False, 'nogui': False, 'port': 8000, 'extcron': False, 'debuglevel': 30, 'test': None, 'folder': '/home/kaique/Projects/web2py', 'config': '', 'import_models': False, 'winservice': '', 'shell': None, 'run': '', 'log_filename': 'httpserver.log', 'args': [''], 'ssl_ca_certificate': None, 'scheduler': None, 'profiler_filename': None, 'ssl_private_key': '', 'password': 'dev', 'request_queue_size': 5, 'ssl_certificate': '', 'cronjob': False, 'plain': False, 'quiet': False, 'interfaces': None, 'minthreads': None, 'timeout': 10, 'numthreads': None, 'nobanner': False}>"
p1972
asbasbasbag56
(g72
g58
NtRp1973
(dp1974
g61
(dp1975
sg70
g1883
sg63
(lp1976
g56
(g77
g58
NtRp1977
(dp1978
g61
(dp1979
g81
g82
ssg70
g1973
sg63
(lp1980
g924
asbag56
(g77
g58
NtRp1981
(dp1982
g61
(dp1983
g88
g89
ssg70
g1973
sg63
(lp1984
S':'
asbag56
(g77
g58
NtRp1985
(dp1986
g61
(dp1987
sg70
g1973
sg63
(lp1988
g56
(g57
g58
NtRp1989
(dp1990
g61
(dp1991
g69
I4
ssg70
g1985
sg63
(lp1992
S'set([])'
p1993
asbasbasbag56
(g72
g58
NtRp1994
(dp1995
g61
(dp1996
sg70
g1883
sg63
(lp1997
g56
(g77
g58
NtRp1998
(dp1999
g61
(dp2000
g81
g82
ssg70
g1994
sg63
(lp2001
g946
asbag56
(g77
g58
NtRp2002
(dp2003
g61
(dp2004
g88
g89
ssg70
g1994
sg63
(lp2005
S':'
asbag56
(g77
g58
NtRp2006
(dp2007
g61
(dp2008
sg70
g1994
sg63
(lp2009
g56
(g57
g58
NtRp2010
(dp2011
g61
(dp2012
g69
I4
ssg70
g2006
sg63
(lp2013
g99
asbasbasbag56
(g72
g58
NtRp2014
(dp2015
g61
(dp2016
sg70
g1883
sg63
(lp2017
g56
(g77
g58
NtRp2018
(dp2019
g61
(dp2020
g81
g82
ssg70
g2014
sg63
(lp2021
g967
asbag56
(g77
g58
NtRp2022
(dp2023
g61
(dp2024
g88
g89
ssg70
g2014
sg63
(lp2025
S':'
asbag56
(g77
g58
NtRp2026
(dp2027
g61
(dp2028
sg70
g2014
sg63
(lp2029
g56
(g57
g58
NtRp2030
(dp2031
g61
(dp2032
g69
I4
ssg70
g2026
sg63
(lp2033
g980
asbasbasbag56
(g72
g58
NtRp2034
(dp2035
g61
(dp2036
sg70
g1883
sg63
(lp2037
g56
(g77
g58
NtRp2038
(dp2039
g61
(dp2040
g81
g82
ssg70
g2034
sg63
(lp2041
g1209
asbag56
(g77
g58
NtRp2042
(dp2043
g61
(dp2044
g88
g89
ssg70
g2034
sg63
(lp2045
S':'
asbag56
(g77
g58
NtRp2046
(dp2047
g61
(dp2048
sg70
g2034
sg63
(lp2049
g56
(g57
g58
NtRp2050
(dp2051
g61
(dp2052
g69
I4
ssg70
g2046
sg63
(lp2053
g99
asbasbasbag56
(g72
g58
NtRp2054
(dp2055
g61
(dp2056
sg70
g1883
sg63
(lp2057
g56
(g77
g58
NtRp2058
(dp2059
g61
(dp2060
g81
g82
ssg70
g2054
sg63
(lp2061
g1447
asbag56
(g77
g58
NtRp2062
(dp2063
g61
(dp2064
g88
g89
ssg70
g2054
sg63
(lp2065
S':'
asbag56
(g77
g58
NtRp2066
(dp2067
g61
(dp2068
sg70
g2054
sg63
(lp2069
g56
(g57
g58
NtRp2070
(dp2071
g61
(dp2072
g69
I4
ssg70
g2066
sg63
(lp2073
g1460
asbasbasbag56
(g72
g58
NtRp2074
(dp2075
g61
(dp2076
sg70
g1883
sg63
(lp2077
g56
(g77
g58
NtRp2078
(dp2079
g61
(dp2080
g81
g82
ssg70
g2074
sg63
(lp2081
g1490
asbag56
(g77
g58
NtRp2082
(dp2083
g61
(dp2084
g88
g89
ssg70
g2074
sg63
(lp2085
S':'
asbag56
(g77
g58
NtRp2086
(dp2087
g61
(dp2088
sg70
g2074
sg63
(lp2089
g56
(g57
g58
NtRp2090
(dp2091
g61
(dp2092
g69
I4
ssg70
g2086
sg63
(lp2093
g56
(g65
g58
NtRp2094
(dp2095
g61
(dp2096
g69
I3
ssg70
Nsg63
(lp2097
g56
(g72
g58
NtRp2098
(dp2099
g61
(dp2100
sg70
g2094
sg63
(lp2101
g56
(g77
g58
NtRp2102
(dp2103
g61
(dp2104
sg70
g2098
sg63
(lp2105
g56
(g57
g58
NtRp2106
(dp2107
g61
(dp2108
g69
I3
ssg70
g2102
sg63
(lp2109
S'1'
asbasbasbag56
(g72
g58
NtRp2110
(dp2111
g61
(dp2112
sg70
g2094
sg63
(lp2113
g56
(g77
g58
NtRp2114
(dp2115
g61
(dp2116
sg70
g2110
sg63
(lp2117
g56
(g57
g58
NtRp2118
(dp2119
g61
(dp2120
g69
I3
ssg70
g2114
sg63
(lp2121
S'99'
p2122
asbasbasbag56
(g72
g58
NtRp2123
(dp2124
g61
(dp2125
sg70
g2094
sg63
(lp2126
g56
(g77
g58
NtRp2127
(dp2128
g61
(dp2129
sg70
g2123
sg63
(lp2130
g56
(g57
g58
NtRp2131
(dp2132
g61
(dp2133
g69
I3
ssg70
g2127
sg63
(lp2134
S'2'
asbasbasbag56
(g72
g58
NtRp2135
(dp2136
g61
(dp2137
sg70
g2094
sg63
(lp2138
g56
(g77
g58
NtRp2139
(dp2140
g61
(dp2141
sg70
g2135
sg63
(lp2142
g56
(g57
g58
NtRp2143
(dp2144
g61
(dp2145
g69
I3
ssg70
g2139
sg63
(lp2146
S'datetime.datetime(2011, 9, 26, 6, 55, 33)'
p2147
asbasbasbag56
(g72
g58
NtRp2148
(dp2149
g61
(dp2150
sg70
g2094
sg63
(lp2151
g56
(g77
g58
NtRp2152
(dp2153
g61
(dp2154
sg70
g2148
sg63
(lp2155
g56
(g57
g58
NtRp2156
(dp2157
g61
(dp2158
g69
I3
ssg70
g2152
sg63
(lp2159
g1569
asbasbasbasbasbasbasbasbasbasbasbag56
(g72
g58
NtRp2160
(dp2161
g61
(dp2162
sg70
g66
sg63
(lp2163
g56
(g77
g58
NtRp2164
(dp2165
g61
(dp2166
g81
g82
ssg70
g2160
sg63
(lp2167
S'is_https'
p2168
asbag56
(g77
g58
NtRp2169
(dp2170
g61
(dp2171
g88
g89
ssg70
g2160
sg63
(lp2172
S':'
asbag56
(g77
g58
NtRp2173
(dp2174
g61
(dp2175
sg70
g2160
sg63
(lp2176
g56
(g57
g58
NtRp2177
(dp2178
g61
(dp2179
g69
I5
ssg70
g2173
sg63
(lp2180
g99
asbasbasbag56
(g72
g58
NtRp2181
(dp2182
g61
(dp2183
sg70
g66
sg63
(lp2184
g56
(g77
g58
NtRp2185
(dp2186
g61
(dp2187
g81
g82
ssg70
g2181
sg63
(lp2188
S'is_local'
p2189
asbag56
(g77
g58
NtRp2190
(dp2191
g61
(dp2192
g88
g89
ssg70
g2181
sg63
(lp2193
S':'
asbag56
(g77
g58
NtRp2194
(dp2195
g61
(dp2196
sg70
g2181
sg63
(lp2197
g56
(g57
g58
NtRp2198
(dp2199
g61
(dp2200
g69
I5
ssg70
g2194
sg63
(lp2201
g1678
asbasbasbag56
(g72
g58
NtRp2202
(dp2203
g61
(dp2204
sg70
g66
sg63
(lp2205
g56
(g77
g58
NtRp2206
(dp2207
g61
(dp2208
g81
g82
ssg70
g2202
sg63
(lp2209
S'is_restful'
p2210
asbag56
(g77
g58
NtRp2211
(dp2212
g61
(dp2213
g88
g89
ssg70
g2202
sg63
(lp2214
S':'
asbag56
(g77
g58
NtRp2215
(dp2216
g61
(dp2217
sg70
g2202
sg63
(lp2218
g56
(g57
g58
NtRp2219
(dp2220
g61
(dp2221
g69
I5
ssg70
g2215
sg63
(lp2222
g99
asbasbasbag56
(g72
g58
NtRp2223
(dp2224
g61
(dp2225
sg70
g66
sg63
(lp2226
g56
(g77
g58
NtRp2227
(dp2228
g61
(dp2229
g81
g82
ssg70
g2223
sg63
(lp2230
S'now'
p2231
asbag56
(g77
g58
NtRp2232
(dp2233
g61
(dp2234
g88
g89
ssg70
g2223
sg63
(lp2235
S':'
asbag56
(g77
g58
NtRp2236
(dp2237
g61
(dp2238
sg70
g2223
sg63
(lp2239
g56
(g57
g58
NtRp2240
(dp2241
g61
(dp2242
g69
I5
ssg70
g2236
sg63
(lp2243
S'datetime.datetime(2011, 11, 14, 21, 17, 23, 918911)'
p2244
asbasbasbag56
(g72
g58
NtRp2245
(dp2246
g61
(dp2247
sg70
g66
sg63
(lp2248
g56
(g77
g58
NtRp2249
(dp2250
g61
(dp2251
g81
g82
ssg70
g2245
sg63
(lp2252
S'post_vars'
p2253
asbag56
(g77
g58
NtRp2254
(dp2255
g61
(dp2256
g88
g89
ssg70
g2245
sg63
(lp2257
S':'
asbag56
(g77
g58
NtRp2258
(dp2259
g61
(dp2260
sg70
g2245
sg63
(lp2261
g56
(g57
g58
NtRp2262
(dp2263
g61
(dp2264
g69
I5
ssg70
g2258
sg63
(lp2265
g56
(g65
g58
NtRp2266
(dp2267
g61
(dp2268
g69
I4
ssg70
Nsg63
(lp2269
sbasbasbasbag56
(g72
g58
NtRp2270
(dp2271
g61
(dp2272
sg70
g66
sg63
(lp2273
g56
(g77
g58
NtRp2274
(dp2275
g61
(dp2276
g81
g82
ssg70
g2270
sg63
(lp2277
S'url'
p2278
asbag56
(g77
g58
NtRp2279
(dp2280
g61
(dp2281
g88
g89
ssg70
g2270
sg63
(lp2282
S':'
asbag56
(g77
g58
NtRp2283
(dp2284
g61
(dp2285
sg70
g2270
sg63
(lp2286
g56
(g57
g58
NtRp2287
(dp2288
g61
(dp2289
g69
I5
ssg70
g2283
sg63
(lp2290
S'/gaviao_peixoto/default/index'
p2291
asbasbasbag56
(g72
g58
NtRp2292
(dp2293
g61
(dp2294
sg70
g66
sg63
(lp2295
g56
(g77
g58
NtRp2296
(dp2297
g61
(dp2298
g81
g82
ssg70
g2292
sg63
(lp2299
S'utcnow'
p2300
asbag56
(g77
g58
NtRp2301
(dp2302
g61
(dp2303
g88
g89
ssg70
g2292
sg63
(lp2304
S':'
asbag56
(g77
g58
NtRp2305
(dp2306
g61
(dp2307
sg70
g2292
sg63
(lp2308
g56
(g57
g58
NtRp2309
(dp2310
g61
(dp2311
g69
I5
ssg70
g2305
sg63
(lp2312
S'datetime.datetime(2011, 11, 14, 23, 17, 23, 918984)'
p2313
asbasbasbag56
(g72
g58
NtRp2314
(dp2315
g61
(dp2316
sg70
g66
sg63
(lp2317
g56
(g77
g58
NtRp2318
(dp2319
g61
(dp2320
g81
g82
ssg70
g2314
sg63
(lp2321
S'uuid'
p2322
asbag56
(g77
g58
NtRp2323
(dp2324
g61
(dp2325
g88
g89
ssg70
g2314
sg63
(lp2326
S':'
asbag56
(g77
g58
NtRp2327
(dp2328
g61
(dp2329
sg70
g2314
sg63
(lp2330
g56
(g57
g58
NtRp2331
(dp2332
g61
(dp2333
g69
I5
ssg70
g2327
sg63
(lp2334
S'gaviao_peixoto/127.0.0.1.2011-11-14.21-17-23.541d71a6-71ab-4842-8b67-dc58d2a19902'
p2335
asbasbasbag56
(g72
g58
NtRp2336
(dp2337
g61
(dp2338
sg70
g66
sg63
(lp2339
g56
(g77
g58
NtRp2340
(dp2341
g61
(dp2342
g81
g82
ssg70
g2336
sg63
(lp2343
S'vars'
p2344
asbag56
(g77
g58
NtRp2345
(dp2346
g61
(dp2347
g88
g89
ssg70
g2336
sg63
(lp2348
S':'
asbag56
(g77
g58
NtRp2349
(dp2350
g61
(dp2351
sg70
g2336
sg63
(lp2352
g56
(g57
g58
NtRp2353
(dp2354
g61
(dp2355
g69
I5
ssg70
g2349
sg63
(lp2356
g56
(g65
g58
NtRp2357
(dp2358
g61
(dp2359
g69
I4
ssg70
Nsg63
(lp2360
sbasbasbasbag56
(g72
g58
NtRp2361
(dp2362
g61
(dp2363
sg70
g66
sg63
(lp2364
g56
(g77
g58
NtRp2365
(dp2366
g61
(dp2367
g81
g82
ssg70
g2361
sg63
(lp2368
S'wsgi'
p2369
asbag56
(g77
g58
NtRp2370
(dp2371
g61
(dp2372
g88
g89
ssg70
g2361
sg63
(lp2373
S':'
asbag56
(g77
g58
NtRp2374
(dp2375
g61
(dp2376
sg70
g2361
sg63
(lp2377
g56
(g57
g58
NtRp2378
(dp2379
g61
(dp2380
g69
I5
ssg70
g2374
sg63
(lp2381
g56
(g65
g58
NtRp2382
(dp2383
g61
(dp2384
g69
I4
ssg70
Nsg63
(lp2385
g56
(g72
g58
NtRp2386
(dp2387
g61
(dp2388
sg70
g2382
sg63
(lp2389
g56
(g77
g58
NtRp2390
(dp2391
g61
(dp2392
g81
g82
ssg70
g2386
sg63
(lp2393
S'environ'
p2394
asbag56
(g77
g58
NtRp2395
(dp2396
g61
(dp2397
g88
g89
ssg70
g2386
sg63
(lp2398
S':'
asbag56
(g77
g58
NtRp2399
(dp2400
g61
(dp2401
sg70
g2386
sg63
(lp2402
g56
(g57
g58
NtRp2403
(dp2404
g61
(dp2405
g69
I4
ssg70
g2399
sg63
(lp2406
g56
(g65
g58
NtRp2407
(dp2408
g61
(dp2409
g69
I3
ssg70
Nsg63
(lp2410
g56
(g72
g58
NtRp2411
(dp2412
g61
(dp2413
sg70
g2407
sg63
(lp2414
g56
(g77
g58
NtRp2415
(dp2416
g61
(dp2417
g81
g82
ssg70
g2411
sg63
(lp2418
S'HTTP_ACCEPT'
p2419
asbag56
(g77
g58
NtRp2420
(dp2421
g61
(dp2422
g88
g89
ssg70
g2411
sg63
(lp2423
S':'
asbag56
(g77
g58
NtRp2424
(dp2425
g61
(dp2426
sg70
g2411
sg63
(lp2427
g56
(g57
g58
NtRp2428
(dp2429
g61
(dp2430
g69
I3
ssg70
g2424
sg63
(lp2431
g1002
asbasbasbag56
(g72
g58
NtRp2432
(dp2433
g61
(dp2434
sg70
g2407
sg63
(lp2435
g56
(g77
g58
NtRp2436
(dp2437
g61
(dp2438
g81
g82
ssg70
g2432
sg63
(lp2439
S'HTTP_ACCEPT_CHARSET'
p2440
asbag56
(g77
g58
NtRp2441
(dp2442
g61
(dp2443
g88
g89
ssg70
g2432
sg63
(lp2444
S':'
asbag56
(g77
g58
NtRp2445
(dp2446
g61
(dp2447
sg70
g2432
sg63
(lp2448
g56
(g57
g58
NtRp2449
(dp2450
g61
(dp2451
g69
I3
ssg70
g2445
sg63
(lp2452
g1024
asbasbasbag56
(g72
g58
NtRp2453
(dp2454
g61
(dp2455
sg70
g2407
sg63
(lp2456
g56
(g77
g58
NtRp2457
(dp2458
g61
(dp2459
g81
g82
ssg70
g2453
sg63
(lp2460
S'HTTP_ACCEPT_ENCODING'
p2461
asbag56
(g77
g58
NtRp2462
(dp2463
g61
(dp2464
g88
g89
ssg70
g2453
sg63
(lp2465
S':'
asbag56
(g77
g58
NtRp2466
(dp2467
g61
(dp2468
sg70
g2453
sg63
(lp2469
g56
(g57
g58
NtRp2470
(dp2471
g61
(dp2472
g69
I3
ssg70
g2466
sg63
(lp2473
g1046
asbasbasbag56
(g72
g58
NtRp2474
(dp2475
g61
(dp2476
sg70
g2407
sg63
(lp2477
g56
(g77
g58
NtRp2478
(dp2479
g61
(dp2480
g81
g82
ssg70
g2474
sg63
(lp2481
S'HTTP_ACCEPT_LANGUAGE'
p2482
asbag56
(g77
g58
NtRp2483
(dp2484
g61
(dp2485
g88
g89
ssg70
g2474
sg63
(lp2486
S':'
asbag56
(g77
g58
NtRp2487
(dp2488
g61
(dp2489
sg70
g2474
sg63
(lp2490
g56
(g57
g58
NtRp2491
(dp2492
g61
(dp2493
g69
I3
ssg70
g2487
sg63
(lp2494
g1068
asbasbasbag56
(g72
g58
NtRp2495
(dp2496
g61
(dp2497
sg70
g2407
sg63
(lp2498
g56
(g77
g58
NtRp2499
(dp2500
g61
(dp2501
g81
g82
ssg70
g2495
sg63
(lp2502
S'HTTP_CACHE_CONTROL'
p2503
asbag56
(g77
g58
NtRp2504
(dp2505
g61
(dp2506
g88
g89
ssg70
g2495
sg63
(lp2507
S':'
asbag56
(g77
g58
NtRp2508
(dp2509
g61
(dp2510
sg70
g2495
sg63
(lp2511
g56
(g57
g58
NtRp2512
(dp2513
g61
(dp2514
g69
I3
ssg70
g2508
sg63
(lp2515
g1090
asbasbasbag56
(g72
g58
NtRp2516
(dp2517
g61
(dp2518
sg70
g2407
sg63
(lp2519
g56
(g77
g58
NtRp2520
(dp2521
g61
(dp2522
g81
g82
ssg70
g2516
sg63
(lp2523
S'HTTP_CONNECTION'
p2524
asbag56
(g77
g58
NtRp2525
(dp2526
g61
(dp2527
g88
g89
ssg70
g2516
sg63
(lp2528
S':'
asbag56
(g77
g58
NtRp2529
(dp2530
g61
(dp2531
sg70
g2516
sg63
(lp2532
g56
(g57
g58
NtRp2533
(dp2534
g61
(dp2535
g69
I3
ssg70
g2529
sg63
(lp2536
g1112
asbasbasbag56
(g72
g58
NtRp2537
(dp2538
g61
(dp2539
sg70
g2407
sg63
(lp2540
g56
(g77
g58
NtRp2541
(dp2542
g61
(dp2543
g81
g82
ssg70
g2537
sg63
(lp2544
S'HTTP_COOKIE'
p2545
asbag56
(g77
g58
NtRp2546
(dp2547
g61
(dp2548
g88
g89
ssg70
g2537
sg63
(lp2549
S':'
asbag56
(g77
g58
NtRp2550
(dp2551
g61
(dp2552
sg70
g2537
sg63
(lp2553
g56
(g57
g58
NtRp2554
(dp2555
g61
(dp2556
g69
I3
ssg70
g2550
sg63
(lp2557
g1134
asbasbasbag56
(g72
g58
NtRp2558
(dp2559
g61
(dp2560
sg70
g2407
sg63
(lp2561
g56
(g77
g58
NtRp2562
(dp2563
g61
(dp2564
g81
g82
ssg70
g2558
sg63
(lp2565
S'HTTP_HOST'
p2566
asbag56
(g77
g58
NtRp2567
(dp2568
g61
(dp2569
g88
g89
ssg70
g2558
sg63
(lp2570
S':'
asbag56
(g77
g58
NtRp2571
(dp2572
g61
(dp2573
sg70
g2558
sg63
(lp2574
g56
(g57
g58
NtRp2575
(dp2576
g61
(dp2577
g69
I3
ssg70
g2571
sg63
(lp2578
g1156
asbasbasbag56
(g72
g58
NtRp2579
(dp2580
g61
(dp2581
sg70
g2407
sg63
(lp2582
g56
(g77
g58
NtRp2583
(dp2584
g61
(dp2585
g81
g82
ssg70
g2579
sg63
(lp2586
S'HTTP_REFERER'
p2587
asbag56
(g77
g58
NtRp2588
(dp2589
g61
(dp2590
g88
g89
ssg70
g2579
sg63
(lp2591
S':'
asbag56
(g77
g58
NtRp2592
(dp2593
g61
(dp2594
sg70
g2579
sg63
(lp2595
g56
(g57
g58
NtRp2596
(dp2597
g61
(dp2598
g69
I3
ssg70
g2592
sg63
(lp2599
g1178
asbasbasbag56
(g72
g58
NtRp2600
(dp2601
g61
(dp2602
sg70
g2407
sg63
(lp2603
g56
(g77
g58
NtRp2604
(dp2605
g61
(dp2606
g81
g82
ssg70
g2600
sg63
(lp2607
S'HTTP_USER_AGENT'
p2608
asbag56
(g77
g58
NtRp2609
(dp2610
g61
(dp2611
g88
g89
ssg70
g2600
sg63
(lp2612
S':'
asbag56
(g77
g58
NtRp2613
(dp2614
g61
(dp2615
sg70
g2600
sg63
(lp2616
g56
(g57
g58
NtRp2617
(dp2618
g61
(dp2619
g69
I3
ssg70
g2613
sg63
(lp2620
g1200
asbasbasbag56
(g72
g58
NtRp2621
(dp2622
g61
(dp2623
sg70
g2407
sg63
(lp2624
g56
(g77
g58
NtRp2625
(dp2626
g61
(dp2627
g81
g82
ssg70
g2621
sg63
(lp2628
S'PATH_INFO'
p2629
asbag56
(g77
g58
NtRp2630
(dp2631
g61
(dp2632
g88
g89
ssg70
g2621
sg63
(lp2633
S':'
asbag56
(g77
g58
NtRp2634
(dp2635
g61
(dp2636
sg70
g2621
sg63
(lp2637
g56
(g57
g58
NtRp2638
(dp2639
g61
(dp2640
g69
I3
ssg70
g2634
sg63
(lp2641
g1243
asbasbasbag56
(g72
g58
NtRp2642
(dp2643
g61
(dp2644
sg70
g2407
sg63
(lp2645
g56
(g77
g58
NtRp2646
(dp2647
g61
(dp2648
g81
g82
ssg70
g2642
sg63
(lp2649
S'QUERY_STRING'
p2650
asbag56
(g77
g58
NtRp2651
(dp2652
g61
(dp2653
g88
g89
ssg70
g2642
sg63
(lp2654
S':'
asbag56
(g77
g58
NtRp2655
(dp2656
g61
(dp2657
sg70
g2642
sg63
(lp2658
g56
(g57
g58
NtRp2659
(dp2660
g61
(dp2661
g69
I3
ssg70
g2655
sg63
(lp2662
S''
asbasbasbag56
(g72
g58
NtRp2663
(dp2664
g61
(dp2665
sg70
g2407
sg63
(lp2666
g56
(g77
g58
NtRp2667
(dp2668
g61
(dp2669
g81
g82
ssg70
g2663
sg63
(lp2670
S'REMOTE_ADDR'
p2671
asbag56
(g77
g58
NtRp2672
(dp2673
g61
(dp2674
g88
g89
ssg70
g2663
sg63
(lp2675
S':'
asbag56
(g77
g58
NtRp2676
(dp2677
g61
(dp2678
sg70
g2663
sg63
(lp2679
g56
(g57
g58
NtRp2680
(dp2681
g61
(dp2682
g69
I3
ssg70
g2676
sg63
(lp2683
g189
asbasbasbag56
(g72
g58
NtRp2684
(dp2685
g61
(dp2686
sg70
g2407
sg63
(lp2687
g56
(g77
g58
NtRp2688
(dp2689
g61
(dp2690
g81
g82
ssg70
g2684
sg63
(lp2691
S'REMOTE_PORT'
p2692
asbag56
(g77
g58
NtRp2693
(dp2694
g61
(dp2695
g88
g89
ssg70
g2684
sg63
(lp2696
S':'
asbag56
(g77
g58
NtRp2697
(dp2698
g61
(dp2699
sg70
g2684
sg63
(lp2700
g56
(g57
g58
NtRp2701
(dp2702
g61
(dp2703
g69
I3
ssg70
g2697
sg63
(lp2704
g1307
asbasbasbag56
(g72
g58
NtRp2705
(dp2706
g61
(dp2707
sg70
g2407
sg63
(lp2708
g56
(g77
g58
NtRp2709
(dp2710
g61
(dp2711
g81
g82
ssg70
g2705
sg63
(lp2712
S'REQUEST_METHOD'
p2713
asbag56
(g77
g58
NtRp2714
(dp2715
g61
(dp2716
g88
g89
ssg70
g2705
sg63
(lp2717
S':'
asbag56
(g77
g58
NtRp2718
(dp2719
g61
(dp2720
sg70
g2705
sg63
(lp2721
g56
(g57
g58
NtRp2722
(dp2723
g61
(dp2724
g69
I3
ssg70
g2718
sg63
(lp2725
g1329
asbasbasbag56
(g72
g58
NtRp2726
(dp2727
g61
(dp2728
sg70
g2407
sg63
(lp2729
g56
(g77
g58
NtRp2730
(dp2731
g61
(dp2732
g81
g82
ssg70
g2726
sg63
(lp2733
S'SCRIPT_NAME'
p2734
asbag56
(g77
g58
NtRp2735
(dp2736
g61
(dp2737
g88
g89
ssg70
g2726
sg63
(lp2738
S':'
asbag56
(g77
g58
NtRp2739
(dp2740
g61
(dp2741
sg70
g2726
sg63
(lp2742
g56
(g57
g58
NtRp2743
(dp2744
g61
(dp2745
g69
I3
ssg70
g2739
sg63
(lp2746
S''
asbasbasbag56
(g72
g58
NtRp2747
(dp2748
g61
(dp2749
sg70
g2407
sg63
(lp2750
g56
(g77
g58
NtRp2751
(dp2752
g61
(dp2753
g81
g82
ssg70
g2747
sg63
(lp2754
S'SERVER_NAME'
p2755
asbag56
(g77
g58
NtRp2756
(dp2757
g61
(dp2758
g88
g89
ssg70
g2747
sg63
(lp2759
S':'
asbag56
(g77
g58
NtRp2760
(dp2761
g61
(dp2762
sg70
g2747
sg63
(lp2763
g56
(g57
g58
NtRp2764
(dp2765
g61
(dp2766
g69
I3
ssg70
g2760
sg63
(lp2767
g1372
asbasbasbag56
(g72
g58
NtRp2768
(dp2769
g61
(dp2770
sg70
g2407
sg63
(lp2771
g56
(g77
g58
NtRp2772
(dp2773
g61
(dp2774
g81
g82
ssg70
g2768
sg63
(lp2775
S'SERVER_PORT'
p2776
asbag56
(g77
g58
NtRp2777
(dp2778
g61
(dp2779
g88
g89
ssg70
g2768
sg63
(lp2780
S':'
asbag56
(g77
g58
NtRp2781
(dp2782
g61
(dp2783
sg70
g2768
sg63
(lp2784
g56
(g57
g58
NtRp2785
(dp2786
g61
(dp2787
g69
I3
ssg70
g2781
sg63
(lp2788
g1394
asbasbasbag56
(g72
g58
NtRp2789
(dp2790
g61
(dp2791
sg70
g2407
sg63
(lp2792
g56
(g77
g58
NtRp2793
(dp2794
g61
(dp2795
g81
g82
ssg70
g2789
sg63
(lp2796
S'SERVER_PROTOCOL'
p2797
asbag56
(g77
g58
NtRp2798
(dp2799
g61
(dp2800
g88
g89
ssg70
g2789
sg63
(lp2801
S':'
asbag56
(g77
g58
NtRp2802
(dp2803
g61
(dp2804
sg70
g2789
sg63
(lp2805
g56
(g57
g58
NtRp2806
(dp2807
g61
(dp2808
g69
I3
ssg70
g2802
sg63
(lp2809
g1416
asbasbasbag56
(g72
g58
NtRp2810
(dp2811
g61
(dp2812
sg70
g2407
sg63
(lp2813
g56
(g77
g58
NtRp2814
(dp2815
g61
(dp2816
g81
g82
ssg70
g2810
sg63
(lp2817
S'SERVER_SOFTWARE'
p2818
asbag56
(g77
g58
NtRp2819
(dp2820
g61
(dp2821
g88
g89
ssg70
g2810
sg63
(lp2822
S':'
asbag56
(g77
g58
NtRp2823
(dp2824
g61
(dp2825
sg70
g2810
sg63
(lp2826
g56
(g57
g58
NtRp2827
(dp2828
g61
(dp2829
g69
I3
ssg70
g2823
sg63
(lp2830
g1438
asbasbasbag56
(g72
g58
NtRp2831
(dp2832
g61
(dp2833
sg70
g2407
sg63
(lp2834
g56
(g77
g58
NtRp2835
(dp2836
g61
(dp2837
g81
g82
ssg70
g2831
sg63
(lp2838
S'wsgi.errors'
p2839
asbag56
(g77
g58
NtRp2840
(dp2841
g61
(dp2842
g88
g89
ssg70
g2831
sg63
(lp2843
S':'
asbag56
(g77
g58
NtRp2844
(dp2845
g61
(dp2846
sg70
g2831
sg63
(lp2847
g56
(g57
g58
NtRp2848
(dp2849
g61
(dp2850
g69
I3
ssg70
g2844
sg63
(lp2851
S"<open file '<stderr>', mode 'w' at 0x7f175f145270>"
p2852
asbasbasbag56
(g72
g58
NtRp2853
(dp2854
g61
(dp2855
sg70
g2407
sg63
(lp2856
g56
(g77
g58
NtRp2857
(dp2858
g61
(dp2859
g81
g82
ssg70
g2853
sg63
(lp2860
S'wsgi.file_wrapper'
p2861
asbag56
(g77
g58
NtRp2862
(dp2863
g61
(dp2864
g88
g89
ssg70
g2853
sg63
(lp2865
S':'
asbag56
(g77
g58
NtRp2866
(dp2867
g61
(dp2868
sg70
g2853
sg63
(lp2869
g56
(g57
g58
NtRp2870
(dp2871
g61
(dp2872
g69
I3
ssg70
g2866
sg63
(lp2873
S'<class wsgiref.util.FileWrapper at 0x2cefdb8>'
p2874
asbasbasbag56
(g72
g58
NtRp2875
(dp2876
g61
(dp2877
sg70
g2407
sg63
(lp2878
g56
(g77
g58
NtRp2879
(dp2880
g61
(dp2881
g81
g82
ssg70
g2875
sg63
(lp2882
S'wsgi.input'
p2883
asbag56
(g77
g58
NtRp2884
(dp2885
g61
(dp2886
g88
g89
ssg70
g2875
sg63
(lp2887
S':'
asbag56
(g77
g58
NtRp2888
(dp2889
g61
(dp2890
sg70
g2875
sg63
(lp2891
g56
(g57
g58
NtRp2892
(dp2893
g61
(dp2894
g69
I3
ssg70
g2888
sg63
(lp2895
S'<cStringIO.StringO object at 0x33e0ca8>'
p2896
asbasbasbag56
(g72
g58
NtRp2897
(dp2898
g61
(dp2899
sg70
g2407
sg63
(lp2900
g56
(g77
g58
NtRp2901
(dp2902
g61
(dp2903
g81
g82
ssg70
g2897
sg63
(lp2904
S'wsgi.multiprocess'
p2905
asbag56
(g77
g58
NtRp2906
(dp2907
g61
(dp2908
g88
g89
ssg70
g2897
sg63
(lp2909
S':'
asbag56
(g77
g58
NtRp2910
(dp2911
g61
(dp2912
sg70
g2897
sg63
(lp2913
g56
(g57
g58
NtRp2914
(dp2915
g61
(dp2916
g69
I3
ssg70
g2910
sg63
(lp2917
g99
asbasbasbag56
(g72
g58
NtRp2918
(dp2919
g61
(dp2920
sg70
g2407
sg63
(lp2921
g56
(g77
g58
NtRp2922
(dp2923
g61
(dp2924
g81
g82
ssg70
g2918
sg63
(lp2925
S'wsgi.multithread'
p2926
asbag56
(g77
g58
NtRp2927
(dp2928
g61
(dp2929
g88
g89
ssg70
g2918
sg63
(lp2930
S':'
asbag56
(g77
g58
NtRp2931
(dp2932
g61
(dp2933
sg70
g2918
sg63
(lp2934
g56
(g57
g58
NtRp2935
(dp2936
g61
(dp2937
g69
I3
ssg70
g2931
sg63
(lp2938
g1678
asbasbasbag56
(g72
g58
NtRp2939
(dp2940
g61
(dp2941
sg70
g2407
sg63
(lp2942
g56
(g77
g58
NtRp2943
(dp2944
g61
(dp2945
g81
g82
ssg70
g2939
sg63
(lp2946
S'wsgi.run_once'
p2947
asbag56
(g77
g58
NtRp2948
(dp2949
g61
(dp2950
g88
g89
ssg70
g2939
sg63
(lp2951
S':'
asbag56
(g77
g58
NtRp2952
(dp2953
g61
(dp2954
sg70
g2939
sg63
(lp2955
g56
(g57
g58
NtRp2956
(dp2957
g61
(dp2958
g69
I3
ssg70
g2952
sg63
(lp2959
g99
asbasbasbag56
(g72
g58
NtRp2960
(dp2961
g61
(dp2962
sg70
g2407
sg63
(lp2963
g56
(g77
g58
NtRp2964
(dp2965
g61
(dp2966
g81
g82
ssg70
g2960
sg63
(lp2967
S'wsgi.url_scheme'
p2968
asbag56
(g77
g58
NtRp2969
(dp2970
g61
(dp2971
g88
g89
ssg70
g2960
sg63
(lp2972
S':'
asbag56
(g77
g58
NtRp2973
(dp2974
g61
(dp2975
sg70
g2960
sg63
(lp2976
g56
(g57
g58
NtRp2977
(dp2978
g61
(dp2979
g69
I3
ssg70
g2973
sg63
(lp2980
g1721
asbasbasbag56
(g72
g58
NtRp2981
(dp2982
g61
(dp2983
sg70
g2407
sg63
(lp2984
g56
(g77
g58
NtRp2985
(dp2986
g61
(dp2987
g81
g82
ssg70
g2981
sg63
(lp2988
S'wsgi.version'
p2989
asbag56
(g77
g58
NtRp2990
(dp2991
g61
(dp2992
g88
g89
ssg70
g2981
sg63
(lp2993
S':'
asbag56
(g77
g58
NtRp2994
(dp2995
g61
(dp2996
sg70
g2981
sg63
(lp2997
g56
(g57
g58
NtRp2998
(dp2999
g61
(dp3000
g69
I3
ssg70
g2994
sg63
(lp3001
S'1'
asbasbasbasbasbasbasbasbasbasbasbasbasbsS'frames'
p3002
(lp3003
(dp3004
S'file'
p3005
S'/home/kaique/Projects/web2py/gluon/restricted.py'
p3006
sS'dump'
p3007
(dp3008
S'environment'
p3009
S"{'A': <class 'gluon.html.A'>, 'Auth': <class 'gluon.tools.Auth'>, 'B': <class 'gluon.html.B'>, 'BEAUTIFY': <class 'gluon.html.BEAUTIFY'>, 'BODY': <class 'gluon.html.BODY'>, 'BR': <class 'gluon.html.BR'>, 'BUTTON': <class 'gluon.html.BUTTON'>, 'CAT': <class 'gluon.html.CAT'>, 'CENTER': <class 'gluon.html.CENTER'>, 'CLEANUP': <class 'gluon.validators.CLEANUP'>, ...}"
p3010
sS'ccode'
p3011
S'<code object <module> at 0x30e7230, file "/home/...gaviao_peixoto/views/default/index.html", line 1>'
p3012
ssS'lnum'
p3013
I194
sS'lines'
p3014
(dp3015
I192
S'        else:'
p3016
sI193
S'            ccode = compile2(code,layer)'
p3017
sI194
S'        exec ccode in environment'
p3018
sI195
S'    except HTTP:'
p3019
sI196
S'        raise'
p3020
sI197
S'    except Exception, error:'
p3021
sI198
S'        # XXX Show exception in Wing IDE if running in debugger'
p3022
sI189
S'    try:'
p3023
sI190
S'        if type(code) == types.CodeType:'
p3024
sI191
S'            ccode = code'
p3025
ssS'call'
p3026
S'(code=\'response.write(\\\'<!DOCTYPE html>\\\\n<html lang="\\\', ...nse.write(\\\'\\\\n  </body>\\\\n</html>\\\\n\\\', escape=False)\', environment={\'A\': <class \'gluon.html.A\'>, \'Auth\': <class \'gluon.tools.Auth\'>, \'B\': <class \'gluon.html.B\'>, \'BEAUTIFY\': <class \'gluon.html.BEAUTIFY\'>, \'BODY\': <class \'gluon.html.BODY\'>, \'BR\': <class \'gluon.html.BR\'>, \'BUTTON\': <class \'gluon.html.BUTTON\'>, \'CAT\': <class \'gluon.html.CAT\'>, \'CENTER\': <class \'gluon.html.CENTER\'>, \'CLEANUP\': <class \'gluon.validators.CLEANUP\'>, ...}, layer=\'/home/kaique/Projects/web2py/applications/gaviao_peixoto/views/default/index.html\')'
p3027
sS'func'
p3028
S'restricted'
p3029
sa(dp3030
g3005
S'/home/kaique/Projects/web2py/applications/gaviao_peixoto/views/default/index.html'
p3031
sg3007
(dp3032
sg3013
I62
sg3014
(dp3033
I64
S'response.write(\'\\n    </div><!-- header  -->\\n    \\n    <div id="statusbar"><!-- statusbar is menu zone -->\\n      \', escape=False)'
p3034
sI65
S"response.write(' <!-- this is default statusbar -->\\n      ', escape=False)"
p3035
sI66
S'#------ superfish menu ------'
p3036
sI67
S"response.write('\\n      ', escape=False)"
p3037
sI68
S"response.write(MENU(response.menu,_class='sf-menu'))"
p3038
sI69
S'response.write(\'\\n      <script type="text/javascript">\\n        jQuery(document).ready(function(){\\n        jQuery(\\\'ul.sf-menu\\\').superfish();});\\n      </script>\\n\\n      <!-- AddToAny BEGIN -->\\n      <div style="padding: 7px; float:right;" class="a2a_kit a2a_default_style"><a class="a2a_dd" href="http://www.addtoany.com/share_save">Share</a></div><script type="text/javascript" src="http://static.addtoany.com/menu/page.js"></script>\\n      <!-- AddToAny END -->\\n\\n      <div style="clear: both;"></div><!-- Clear the divs -->   \\n      \', escape=False)'
p3039
sI70
S'response.write(\'               \\n    </div><!-- statusbar -->\\n    \\n    <div id="page"> <!-- Here my central body -->     \\n\\n      \', escape=False)'
p3040
sI71
S'if left_sidebar_enabled:'
p3041
sI72
S'    response.write(\'\\n          <div id="left_sidebar" \', escape=False)'
p3042
sI53
S'style_content = \'style="width: %s"\' % width_content'
p3043
sI54
S'response.write(\'\\n    \\n    <!-- uncomment here to load jquery-ui -->\\n    \\n    <link rel="stylesheet" href="http://ajax.googleapis.com/ajax/libs/jqueryui/1.8.16/themes/base/jquery-ui.css" type="text/css" media="all" />\\n    <script src="http://ajax.googleapis.com/ajax/libs/jqueryui/1.8.16/jquery-ui.min.js" type="text/javascript"></script>\\n    \\n   <!-- uncomment to load jquery-ui -->\\n    \\n    \\n  </head>\\n  \\n  <!-- paulirish.com/2008/conditional-stylesheets-vs-css-hacks-answer-neither/ -->  \\n  <!--[if lt IE 7 ]> <body class="ie6"> <![endif]-->\\n  <!--[if IE 7 ]>    <body class="ie7"> <![endif]-->\\n  <!--[if IE 8 ]>    <body class="ie8"> <![endif]-->\\n  <!--[if IE 9 ]>    <body class="ie9"> <![endif]-->\\n  <!--[if (gt IE 9)|!(IE)]><!--> <body> <!--<![endif]-->\\n    \\n    <div class="flash">\', escape=False)'
p3044
sI55
S"response.write(response.flash or '')"
p3045
sI56
S'response.write(\'</div> <!-- notification div -->\\n\\n        \\n\\n    <div id="container">                        \\n      \\n      <div id="wrapper">        \\n      \', escape=False)'
p3046
sI57
S'try:'
p3047
sI58
S"    response.write(auth.navbar(action=URL('default','user')))"
p3048
sI59
S'except:pass'
p3049
sI60
S'response.write(\'\\n    \\n    <div id="header"> <!-- header and login nav -->\\n      \', escape=False)'
p3050
sI61
S'response.write(\' <!-- this is default header -->\\n      \\n      <h1>\\n        <span id="appname">\', escape=False)'
p3051
sI62
S'response.write(request.title.capitalize())'
p3052
sI63
S'response.write(\'</span>App\\n      </h1>\\n      <div style="clear: both;"></div><!-- Clear the divs -->\\n      \', escape=False)'
p3053
ssg3026
S'()'
p3054
sg3028
S'<module>'
p3055
sasS'pyver'
p3056
S'Python 2.7.2+: /usr/bin/python'
p3057
sS'session'
p3058
g56
(g57
g58
NtRp3059
(dp3060
g61
(dp3061
sg63
(lp3062
g56
(g65
g58
NtRp3063
(dp3064
g61
(dp3065
g69
I5
ssg70
Nsg63
(lp3066
sbasbsS'etype'
p3067
S"<type 'exceptions.AttributeError'>"
p3068
sS'date'
p3069
S'Mon Nov 14 21:17:24 2011'
p3070
sS'response'
p3071
g56
(g57
g58
NtRp3072
(dp3073
g61
(dp3074
sg63
(lp3075
g56
(g65
g58
NtRp3076
(dp3077
g61
(dp3078
g69
I5
ssg70
Nsg63
(lp3079
g56
(g72
g58
NtRp3080
(dp3081
g61
(dp3082
sg70
g3076
sg63
(lp3083
g56
(g77
g58
NtRp3084
(dp3085
g61
(dp3086
g81
g82
ssg70
g3080
sg63
(lp3087
g154
asbag56
(g77
g58
NtRp3088
(dp3089
g61
(dp3090
g88
g89
ssg70
g3080
sg63
(lp3091
S':'
asbag56
(g77
g58
NtRp3092
(dp3093
g61
(dp3094
sg70
g3080
sg63
(lp3095
g56
(g57
g58
NtRp3096
(dp3097
g61
(dp3098
g69
I5
ssg70
g3092
sg63
(lp3099
S'<cStringIO.StringO object at 0x34222d0>'
p3100
asbasbasbag56
(g72
g58
NtRp3101
(dp3102
g61
(dp3103
sg70
g3076
sg63
(lp3104
g56
(g77
g58
NtRp3105
(dp3106
g61
(dp3107
g81
g82
ssg70
g3101
sg63
(lp3108
g220
asbag56
(g77
g58
NtRp3109
(dp3110
g61
(dp3111
g88
g89
ssg70
g3101
sg63
(lp3112
S':'
asbag56
(g77
g58
NtRp3113
(dp3114
g61
(dp3115
sg70
g3101
sg63
(lp3116
g56
(g57
g58
NtRp3117
(dp3118
g61
(dp3119
g69
I5
ssg70
g3113
sg63
(lp3120
g56
(g65
g58
NtRp3121
(dp3122
g61
(dp3123
g69
I4
ssg70
Nsg63
(lp3124
g56
(g72
g58
NtRp3125
(dp3126
g61
(dp3127
sg70
g3121
sg63
(lp3128
g56
(g77
g58
NtRp3129
(dp3130
g61
(dp3131
g81
g82
ssg70
g3125
sg63
(lp3132
S'session_id_gaviao_peixoto'
p3133
asbag56
(g77
g58
NtRp3134
(dp3135
g61
(dp3136
g88
g89
ssg70
g3125
sg63
(lp3137
S':'
asbag56
(g77
g58
NtRp3138
(dp3139
g61
(dp3140
sg70
g3125
sg63
(lp3141
g56
(g57
g58
NtRp3142
(dp3143
g61
(dp3144
g69
I4
ssg70
g3138
sg63
(lp3145
g56
(g65
g58
NtRp3146
(dp3147
g61
(dp3148
g69
I3
ssg70
Nsg63
(lp3149
g56
(g72
g58
NtRp3150
(dp3151
g61
(dp3152
sg70
g3146
sg63
(lp3153
g56
(g77
g58
NtRp3154
(dp3155
g61
(dp3156
g81
g82
ssg70
g3150
sg63
(lp3157
g270
asbag56
(g77
g58
NtRp3158
(dp3159
g61
(dp3160
g88
g89
ssg70
g3150
sg63
(lp3161
S':'
asbag56
(g77
g58
NtRp3162
(dp3163
g61
(dp3164
sg70
g3150
sg63
(lp3165
g56
(g57
g58
NtRp3166
(dp3167
g61
(dp3168
g69
I3
ssg70
g3162
sg63
(lp3169
S''
asbasbasbag56
(g72
g58
NtRp3170
(dp3171
g61
(dp3172
sg70
g3146
sg63
(lp3173
g56
(g77
g58
NtRp3174
(dp3175
g61
(dp3176
g81
g82
ssg70
g3170
sg63
(lp3177
g291
asbag56
(g77
g58
NtRp3178
(dp3179
g61
(dp3180
g88
g89
ssg70
g3170
sg63
(lp3181
S':'
asbag56
(g77
g58
NtRp3182
(dp3183
g61
(dp3184
sg70
g3170
sg63
(lp3185
g56
(g57
g58
NtRp3186
(dp3187
g61
(dp3188
g69
I3
ssg70
g3182
sg63
(lp3189
S''
asbasbasbag56
(g72
g58
NtRp3190
(dp3191
g61
(dp3192
sg70
g3146
sg63
(lp3193
g56
(g77
g58
NtRp3194
(dp3195
g61
(dp3196
g81
g82
ssg70
g3190
sg63
(lp3197
g312
asbag56
(g77
g58
NtRp3198
(dp3199
g61
(dp3200
g88
g89
ssg70
g3190
sg63
(lp3201
S':'
asbag56
(g77
g58
NtRp3202
(dp3203
g61
(dp3204
sg70
g3190
sg63
(lp3205
g56
(g57
g58
NtRp3206
(dp3207
g61
(dp3208
g69
I3
ssg70
g3202
sg63
(lp3209
S''
asbasbasbag56
(g72
g58
NtRp3210
(dp3211
g61
(dp3212
sg70
g3146
sg63
(lp3213
g56
(g77
g58
NtRp3214
(dp3215
g61
(dp3216
g81
g82
ssg70
g3210
sg63
(lp3217
g333
asbag56
(g77
g58
NtRp3218
(dp3219
g61
(dp3220
g88
g89
ssg70
g3210
sg63
(lp3221
S':'
asbag56
(g77
g58
NtRp3222
(dp3223
g61
(dp3224
sg70
g3210
sg63
(lp3225
g56
(g57
g58
NtRp3226
(dp3227
g61
(dp3228
g69
I3
ssg70
g3222
sg63
(lp3229
S''
asbasbasbag56
(g72
g58
NtRp3230
(dp3231
g61
(dp3232
sg70
g3146
sg63
(lp3233
g56
(g77
g58
NtRp3234
(dp3235
g61
(dp3236
g81
g82
ssg70
g3230
sg63
(lp3237
g354
asbag56
(g77
g58
NtRp3238
(dp3239
g61
(dp3240
g88
g89
ssg70
g3230
sg63
(lp3241
S':'
asbag56
(g77
g58
NtRp3242
(dp3243
g61
(dp3244
sg70
g3230
sg63
(lp3245
g56
(g57
g58
NtRp3246
(dp3247
g61
(dp3248
g69
I3
ssg70
g3242
sg63
(lp3249
S''
asbasbasbag56
(g72
g58
NtRp3250
(dp3251
g61
(dp3252
sg70
g3146
sg63
(lp3253
g56
(g77
g58
NtRp3254
(dp3255
g61
(dp3256
g81
g82
ssg70
g3250
sg63
(lp3257
g375
asbag56
(g77
g58
NtRp3258
(dp3259
g61
(dp3260
g88
g89
ssg70
g3250
sg63
(lp3261
S':'
asbag56
(g77
g58
NtRp3262
(dp3263
g61
(dp3264
sg70
g3250
sg63
(lp3265
g56
(g57
g58
NtRp3266
(dp3267
g61
(dp3268
g69
I3
ssg70
g3262
sg63
(lp3269
S'/'
asbasbasbag56
(g72
g58
NtRp3270
(dp3271
g61
(dp3272
sg70
g3146
sg63
(lp3273
g56
(g77
g58
NtRp3274
(dp3275
g61
(dp3276
g81
g82
ssg70
g3270
sg63
(lp3277
g396
asbag56
(g77
g58
NtRp3278
(dp3279
g61
(dp3280
g88
g89
ssg70
g3270
sg63
(lp3281
S':'
asbag56
(g77
g58
NtRp3282
(dp3283
g61
(dp3284
sg70
g3270
sg63
(lp3285
g56
(g57
g58
NtRp3286
(dp3287
g61
(dp3288
g69
I3
ssg70
g3282
sg63
(lp3289
S''
asbasbasbag56
(g72
g58
NtRp3290
(dp3291
g61
(dp3292
sg70
g3146
sg63
(lp3293
g56
(g77
g58
NtRp3294
(dp3295
g61
(dp3296
g81
g82
ssg70
g3290
sg63
(lp3297
g417
asbag56
(g77
g58
NtRp3298
(dp3299
g61
(dp3300
g88
g89
ssg70
g3290
sg63
(lp3301
S':'
asbag56
(g77
g58
NtRp3302
(dp3303
g61
(dp3304
sg70
g3290
sg63
(lp3305
g56
(g57
g58
NtRp3306
(dp3307
g61
(dp3308
g69
I3
ssg70
g3302
sg63
(lp3309
S''
asbasbasbasbasbasbasbasbasbasbasbag56
(g72
g58
NtRp3310
(dp3311
g61
(dp3312
sg70
g3076
sg63
(lp3313
g56
(g77
g58
NtRp3314
(dp3315
g61
(dp3316
g81
g82
ssg70
g3310
sg63
(lp3317
S'files'
p3318
asbag56
(g77
g58
NtRp3319
(dp3320
g61
(dp3321
g88
g89
ssg70
g3310
sg63
(lp3322
S':'
asbag56
(g77
g58
NtRp3323
(dp3324
g61
(dp3325
sg70
g3310
sg63
(lp3326
g56
(g57
g58
NtRp3327
(dp3328
g61
(dp3329
g69
I5
ssg70
g3323
sg63
(lp3330
g56
(g65
g58
NtRp3331
(dp3332
g61
(dp3333
g69
I4
ssg70
Nsg63
(lp3334
g56
(g72
g58
NtRp3335
(dp3336
g61
(dp3337
sg70
g3331
sg63
(lp3338
g56
(g77
g58
NtRp3339
(dp3340
g61
(dp3341
sg70
g3335
sg63
(lp3342
g56
(g57
g58
NtRp3343
(dp3344
g61
(dp3345
g69
I4
ssg70
g3339
sg63
(lp3346
S'/gaviao_peixoto/static/js/jquery.js'
p3347
asbasbasbag56
(g72
g58
NtRp3348
(dp3349
g61
(dp3350
sg70
g3331
sg63
(lp3351
g56
(g77
g58
NtRp3352
(dp3353
g61
(dp3354
sg70
g3348
sg63
(lp3355
g56
(g57
g58
NtRp3356
(dp3357
g61
(dp3358
g69
I4
ssg70
g3352
sg63
(lp3359
S'/gaviao_peixoto/static/css/anytime.css'
p3360
asbasbasbag56
(g72
g58
NtRp3361
(dp3362
g61
(dp3363
sg70
g3331
sg63
(lp3364
g56
(g77
g58
NtRp3365
(dp3366
g61
(dp3367
sg70
g3361
sg63
(lp3368
g56
(g57
g58
NtRp3369
(dp3370
g61
(dp3371
g69
I4
ssg70
g3365
sg63
(lp3372
S'/gaviao_peixoto/static/js/anytime.js'
p3373
asbasbasbag56
(g72
g58
NtRp3374
(dp3375
g61
(dp3376
sg70
g3331
sg63
(lp3377
g56
(g77
g58
NtRp3378
(dp3379
g61
(dp3380
sg70
g3374
sg63
(lp3381
g56
(g57
g58
NtRp3382
(dp3383
g61
(dp3384
g69
I4
ssg70
g3378
sg63
(lp3385
S'/gaviao_peixoto/static/css/base.css'
p3386
asbasbasbag56
(g72
g58
NtRp3387
(dp3388
g61
(dp3389
sg70
g3331
sg63
(lp3390
g56
(g77
g58
NtRp3391
(dp3392
g61
(dp3393
sg70
g3387
sg63
(lp3394
g56
(g57
g58
NtRp3395
(dp3396
g61
(dp3397
g69
I4
ssg70
g3391
sg63
(lp3398
S'/gaviao_peixoto/static/css/superfish.css'
p3399
asbasbasbag56
(g72
g58
NtRp3400
(dp3401
g61
(dp3402
sg70
g3331
sg63
(lp3403
g56
(g77
g58
NtRp3404
(dp3405
g61
(dp3406
sg70
g3400
sg63
(lp3407
g56
(g57
g58
NtRp3408
(dp3409
g61
(dp3410
g69
I4
ssg70
g3404
sg63
(lp3411
S'/gaviao_peixoto/static/js/superfish.js'
p3412
asbasbasbasbasbasbasbag56
(g72
g58
NtRp3413
(dp3414
g61
(dp3415
sg70
g3076
sg63
(lp3416
g56
(g77
g58
NtRp3417
(dp3418
g61
(dp3419
g81
g82
ssg70
g3413
sg63
(lp3420
S'flash'
p3421
asbag56
(g77
g58
NtRp3422
(dp3423
g61
(dp3424
g88
g89
ssg70
g3413
sg63
(lp3425
S':'
asbag56
(g77
g58
NtRp3426
(dp3427
g61
(dp3428
sg70
g3413
sg63
(lp3429
g56
(g57
g58
NtRp3430
(dp3431
g61
(dp3432
g69
I5
ssg70
g3426
sg63
(lp3433
S''
asbasbasbag56
(g72
g58
NtRp3434
(dp3435
g61
(dp3436
sg70
g3076
sg63
(lp3437
g56
(g77
g58
NtRp3438
(dp3439
g61
(dp3440
g81
g82
ssg70
g3434
sg63
(lp3441
S'generic_patterns'
p3442
asbag56
(g77
g58
NtRp3443
(dp3444
g61
(dp3445
g88
g89
ssg70
g3434
sg63
(lp3446
S':'
asbag56
(g77
g58
NtRp3447
(dp3448
g61
(dp3449
sg70
g3434
sg63
(lp3450
g56
(g57
g58
NtRp3451
(dp3452
g61
(dp3453
g69
I5
ssg70
g3447
sg63
(lp3454
g56
(g65
g58
NtRp3455
(dp3456
g61
(dp3457
g69
I4
ssg70
Nsg63
(lp3458
g56
(g72
g58
NtRp3459
(dp3460
g61
(dp3461
sg70
g3455
sg63
(lp3462
g56
(g77
g58
NtRp3463
(dp3464
g61
(dp3465
sg70
g3459
sg63
(lp3466
g56
(g57
g58
NtRp3467
(dp3468
g61
(dp3469
g69
I4
ssg70
g3463
sg63
(lp3470
S'*'
asbasbasbasbasbasbasbag56
(g72
g58
NtRp3471
(dp3472
g61
(dp3473
sg70
g3076
sg63
(lp3474
g56
(g77
g58
NtRp3475
(dp3476
g61
(dp3477
g81
g82
ssg70
g3471
sg63
(lp3478
S'headers'
p3479
asbag56
(g77
g58
NtRp3480
(dp3481
g61
(dp3482
g88
g89
ssg70
g3471
sg63
(lp3483
S':'
asbag56
(g77
g58
NtRp3484
(dp3485
g61
(dp3486
sg70
g3471
sg63
(lp3487
g56
(g57
g58
NtRp3488
(dp3489
g61
(dp3490
g69
I5
ssg70
g3484
sg63
(lp3491
g56
(g65
g58
NtRp3492
(dp3493
g61
(dp3494
g69
I4
ssg70
Nsg63
(lp3495
g56
(g72
g58
NtRp3496
(dp3497
g61
(dp3498
sg70
g3492
sg63
(lp3499
g56
(g77
g58
NtRp3500
(dp3501
g61
(dp3502
g81
g82
ssg70
g3496
sg63
(lp3503
S'Cache-Control'
p3504
asbag56
(g77
g58
NtRp3505
(dp3506
g61
(dp3507
g88
g89
ssg70
g3496
sg63
(lp3508
S':'
asbag56
(g77
g58
NtRp3509
(dp3510
g61
(dp3511
sg70
g3496
sg63
(lp3512
g56
(g57
g58
NtRp3513
(dp3514
g61
(dp3515
g69
I4
ssg70
g3509
sg63
(lp3516
S'no-store, no-cache, must-revalidate, post-check=0, pre-check=0'
p3517
asbasbasbag56
(g72
g58
NtRp3518
(dp3519
g61
(dp3520
sg70
g3492
sg63
(lp3521
g56
(g77
g58
NtRp3522
(dp3523
g61
(dp3524
g81
g82
ssg70
g3518
sg63
(lp3525
S'Content-Type'
p3526
asbag56
(g77
g58
NtRp3527
(dp3528
g61
(dp3529
g88
g89
ssg70
g3518
sg63
(lp3530
S':'
asbag56
(g77
g58
NtRp3531
(dp3532
g61
(dp3533
sg70
g3518
sg63
(lp3534
g56
(g57
g58
NtRp3535
(dp3536
g61
(dp3537
g69
I4
ssg70
g3531
sg63
(lp3538
S'text/html; charset=utf-8'
p3539
asbasbasbag56
(g72
g58
NtRp3540
(dp3541
g61
(dp3542
sg70
g3492
sg63
(lp3543
g56
(g77
g58
NtRp3544
(dp3545
g61
(dp3546
g81
g82
ssg70
g3540
sg63
(lp3547
S'Expires'
p3548
asbag56
(g77
g58
NtRp3549
(dp3550
g61
(dp3551
g88
g89
ssg70
g3540
sg63
(lp3552
S':'
asbag56
(g77
g58
NtRp3553
(dp3554
g61
(dp3555
sg70
g3540
sg63
(lp3556
g56
(g57
g58
NtRp3557
(dp3558
g61
(dp3559
g69
I4
ssg70
g3553
sg63
(lp3560
S'Mon, 14 Nov 2011 23:17:23 GMT'
p3561
asbasbasbag56
(g72
g58
NtRp3562
(dp3563
g61
(dp3564
sg70
g3492
sg63
(lp3565
g56
(g77
g58
NtRp3566
(dp3567
g61
(dp3568
g81
g82
ssg70
g3562
sg63
(lp3569
S'Pragma'
p3570
asbag56
(g77
g58
NtRp3571
(dp3572
g61
(dp3573
g88
g89
ssg70
g3562
sg63
(lp3574
S':'
asbag56
(g77
g58
NtRp3575
(dp3576
g61
(dp3577
sg70
g3562
sg63
(lp3578
g56
(g57
g58
NtRp3579
(dp3580
g61
(dp3581
g69
I4
ssg70
g3575
sg63
(lp3582
S'no-cache'
p3583
asbasbasbag56
(g72
g58
NtRp3584
(dp3585
g61
(dp3586
sg70
g3492
sg63
(lp3587
g56
(g77
g58
NtRp3588
(dp3589
g61
(dp3590
g81
g82
ssg70
g3584
sg63
(lp3591
S'X-Powered-By'
p3592
asbag56
(g77
g58
NtRp3593
(dp3594
g61
(dp3595
g88
g89
ssg70
g3584
sg63
(lp3596
S':'
asbag56
(g77
g58
NtRp3597
(dp3598
g61
(dp3599
sg70
g3584
sg63
(lp3600
g56
(g57
g58
NtRp3601
(dp3602
g61
(dp3603
g69
I4
ssg70
g3597
sg63
(lp3604
S'web2py'
p3605
asbasbasbasbasbasbasbag56
(g72
g58
NtRp3606
(dp3607
g61
(dp3608
sg70
g3076
sg63
(lp3609
g56
(g77
g58
NtRp3610
(dp3611
g61
(dp3612
g81
g82
ssg70
g3606
sg63
(lp3613
S'menu'
p3614
asbag56
(g77
g58
NtRp3615
(dp3616
g61
(dp3617
g88
g89
ssg70
g3606
sg63
(lp3618
S':'
asbag56
(g77
g58
NtRp3619
(dp3620
g61
(dp3621
sg70
g3606
sg63
(lp3622
g56
(g57
g58
NtRp3623
(dp3624
g61
(dp3625
g69
I5
ssg70
g3619
sg63
(lp3626
g56
(g65
g58
NtRp3627
(dp3628
g61
(dp3629
g69
I4
ssg70
Nsg63
(lp3630
g56
(g72
g58
NtRp3631
(dp3632
g61
(dp3633
sg70
g3627
sg63
(lp3634
g56
(g77
g58
NtRp3635
(dp3636
g61
(dp3637
sg70
g3631
sg63
(lp3638
g56
(g57
g58
NtRp3639
(dp3640
g61
(dp3641
g69
I4
ssg70
g3635
sg63
(lp3642
g56
(g65
g58
NtRp3643
(dp3644
g61
(dp3645
g69
I3
ssg70
Nsg63
(lp3646
g56
(g72
g58
NtRp3647
(dp3648
g61
(dp3649
sg70
g3643
sg63
(lp3650
g56
(g77
g58
NtRp3651
(dp3652
g61
(dp3653
sg70
g3647
sg63
(lp3654
g56
(g57
g58
NtRp3655
(dp3656
g61
(dp3657
g69
I3
ssg70
g3651
sg63
(lp3658
S'Inicio'
p3659
asbasbasbag56
(g72
g58
NtRp3660
(dp3661
g61
(dp3662
sg70
g3643
sg63
(lp3663
g56
(g77
g58
NtRp3664
(dp3665
g61
(dp3666
sg70
g3660
sg63
(lp3667
g56
(g57
g58
NtRp3668
(dp3669
g61
(dp3670
g69
I3
ssg70
g3664
sg63
(lp3671
g99
asbasbasbag56
(g72
g58
NtRp3672
(dp3673
g61
(dp3674
sg70
g3643
sg63
(lp3675
g56
(g77
g58
NtRp3676
(dp3677
g61
(dp3678
sg70
g3672
sg63
(lp3679
g56
(g57
g58
NtRp3680
(dp3681
g61
(dp3682
g69
I3
ssg70
g3676
sg63
(lp3683
S'/gaviao_peixoto/default/index'
p3684
asbasbasbag56
(g72
g58
NtRp3685
(dp3686
g61
(dp3687
sg70
g3643
sg63
(lp3688
g56
(g77
g58
NtRp3689
(dp3690
g61
(dp3691
sg70
g3685
sg63
(lp3692
g56
(g57
g58
NtRp3693
(dp3694
g61
(dp3695
g69
I3
ssg70
g3689
sg63
(lp3696
g56
(g65
g58
NtRp3697
(dp3698
g61
(dp3699
g69
I2
ssg70
Nsg63
(lp3700
sbasbasbasbasbasbasbasbag56
(g72
g58
NtRp3701
(dp3702
g61
(dp3703
sg70
g3627
sg63
(lp3704
g56
(g77
g58
NtRp3705
(dp3706
g61
(dp3707
sg70
g3701
sg63
(lp3708
g56
(g57
g58
NtRp3709
(dp3710
g61
(dp3711
g69
I4
ssg70
g3705
sg63
(lp3712
g56
(g65
g58
NtRp3713
(dp3714
g61
(dp3715
g69
I3
ssg70
Nsg63
(lp3716
g56
(g72
g58
NtRp3717
(dp3718
g61
(dp3719
sg70
g3713
sg63
(lp3720
g56
(g77
g58
NtRp3721
(dp3722
g61
(dp3723
sg70
g3717
sg63
(lp3724
g56
(g57
g58
NtRp3725
(dp3726
g61
(dp3727
g69
I3
ssg70
g3721
sg63
(lp3728
S'Mural'
p3729
asbasbasbag56
(g72
g58
NtRp3730
(dp3731
g61
(dp3732
sg70
g3713
sg63
(lp3733
g56
(g77
g58
NtRp3734
(dp3735
g61
(dp3736
sg70
g3730
sg63
(lp3737
g56
(g57
g58
NtRp3738
(dp3739
g61
(dp3740
g69
I3
ssg70
g3734
sg63
(lp3741
g99
asbasbasbag56
(g72
g58
NtRp3742
(dp3743
g61
(dp3744
sg70
g3713
sg63
(lp3745
g56
(g77
g58
NtRp3746
(dp3747
g61
(dp3748
sg70
g3742
sg63
(lp3749
g56
(g57
g58
NtRp3750
(dp3751
g61
(dp3752
g69
I3
ssg70
g3746
sg63
(lp3753
S'/gaviao_peixoto/wall/index'
p3754
asbasbasbag56
(g72
g58
NtRp3755
(dp3756
g61
(dp3757
sg70
g3713
sg63
(lp3758
g56
(g77
g58
NtRp3759
(dp3760
g61
(dp3761
sg70
g3755
sg63
(lp3762
g56
(g57
g58
NtRp3763
(dp3764
g61
(dp3765
g69
I3
ssg70
g3759
sg63
(lp3766
g56
(g65
g58
NtRp3767
(dp3768
g61
(dp3769
g69
I2
ssg70
Nsg63
(lp3770
sbasbasbasbasbasbasbasbag56
(g72
g58
NtRp3771
(dp3772
g61
(dp3773
sg70
g3627
sg63
(lp3774
g56
(g77
g58
NtRp3775
(dp3776
g61
(dp3777
sg70
g3771
sg63
(lp3778
g56
(g57
g58
NtRp3779
(dp3780
g61
(dp3781
g69
I4
ssg70
g3775
sg63
(lp3782
g56
(g65
g58
NtRp3783
(dp3784
g61
(dp3785
g69
I3
ssg70
Nsg63
(lp3786
g56
(g72
g58
NtRp3787
(dp3788
g61
(dp3789
sg70
g3783
sg63
(lp3790
g56
(g77
g58
NtRp3791
(dp3792
g61
(dp3793
sg70
g3787
sg63
(lp3794
g56
(g57
g58
NtRp3795
(dp3796
g61
(dp3797
g69
I3
ssg70
g3791
sg63
(lp3798
S'Blog'
p3799
asbasbasbag56
(g72
g58
NtRp3800
(dp3801
g61
(dp3802
sg70
g3783
sg63
(lp3803
g56
(g77
g58
NtRp3804
(dp3805
g61
(dp3806
sg70
g3800
sg63
(lp3807
g56
(g57
g58
NtRp3808
(dp3809
g61
(dp3810
g69
I3
ssg70
g3804
sg63
(lp3811
g99
asbasbasbag56
(g72
g58
NtRp3812
(dp3813
g61
(dp3814
sg70
g3783
sg63
(lp3815
g56
(g77
g58
NtRp3816
(dp3817
g61
(dp3818
sg70
g3812
sg63
(lp3819
g56
(g57
g58
NtRp3820
(dp3821
g61
(dp3822
g69
I3
ssg70
g3816
sg63
(lp3823
S'/gaviao_peixoto/blog/index'
p3824
asbasbasbag56
(g72
g58
NtRp3825
(dp3826
g61
(dp3827
sg70
g3783
sg63
(lp3828
g56
(g77
g58
NtRp3829
(dp3830
g61
(dp3831
sg70
g3825
sg63
(lp3832
g56
(g57
g58
NtRp3833
(dp3834
g61
(dp3835
g69
I3
ssg70
g3829
sg63
(lp3836
g56
(g65
g58
NtRp3837
(dp3838
g61
(dp3839
g69
I2
ssg70
Nsg63
(lp3840
sbasbasbasbasbasbasbasbag56
(g72
g58
NtRp3841
(dp3842
g61
(dp3843
sg70
g3627
sg63
(lp3844
g56
(g77
g58
NtRp3845
(dp3846
g61
(dp3847
sg70
g3841
sg63
(lp3848
g56
(g57
g58
NtRp3849
(dp3850
g61
(dp3851
g69
I4
ssg70
g3845
sg63
(lp3852
g56
(g65
g58
NtRp3853
(dp3854
g61
(dp3855
g69
I3
ssg70
Nsg63
(lp3856
g56
(g72
g58
NtRp3857
(dp3858
g61
(dp3859
sg70
g3853
sg63
(lp3860
g56
(g77
g58
NtRp3861
(dp3862
g61
(dp3863
sg70
g3857
sg63
(lp3864
g56
(g57
g58
NtRp3865
(dp3866
g61
(dp3867
g69
I3
ssg70
g3861
sg63
(lp3868
S'Notas'
p3869
asbasbasbag56
(g72
g58
NtRp3870
(dp3871
g61
(dp3872
sg70
g3853
sg63
(lp3873
g56
(g77
g58
NtRp3874
(dp3875
g61
(dp3876
sg70
g3870
sg63
(lp3877
g56
(g57
g58
NtRp3878
(dp3879
g61
(dp3880
g69
I3
ssg70
g3874
sg63
(lp3881
g99
asbasbasbag56
(g72
g58
NtRp3882
(dp3883
g61
(dp3884
sg70
g3853
sg63
(lp3885
g56
(g77
g58
NtRp3886
(dp3887
g61
(dp3888
sg70
g3882
sg63
(lp3889
g56
(g57
g58
NtRp3890
(dp3891
g61
(dp3892
g69
I3
ssg70
g3886
sg63
(lp3893
S'/gaviao_peixoto/notes/index'
p3894
asbasbasbag56
(g72
g58
NtRp3895
(dp3896
g61
(dp3897
sg70
g3853
sg63
(lp3898
g56
(g77
g58
NtRp3899
(dp3900
g61
(dp3901
sg70
g3895
sg63
(lp3902
g56
(g57
g58
NtRp3903
(dp3904
g61
(dp3905
g69
I3
ssg70
g3899
sg63
(lp3906
g56
(g65
g58
NtRp3907
(dp3908
g61
(dp3909
g69
I2
ssg70
Nsg63
(lp3910
sbasbasbasbasbasbasbasbag56
(g72
g58
NtRp3911
(dp3912
g61
(dp3913
sg70
g3627
sg63
(lp3914
g56
(g77
g58
NtRp3915
(dp3916
g61
(dp3917
sg70
g3911
sg63
(lp3918
g56
(g57
g58
NtRp3919
(dp3920
g61
(dp3921
g69
I4
ssg70
g3915
sg63
(lp3922
g56
(g65
g58
NtRp3923
(dp3924
g61
(dp3925
g69
I3
ssg70
Nsg63
(lp3926
g56
(g72
g58
NtRp3927
(dp3928
g61
(dp3929
sg70
g3923
sg63
(lp3930
g56
(g77
g58
NtRp3931
(dp3932
g61
(dp3933
sg70
g3927
sg63
(lp3934
g56
(g57
g58
NtRp3935
(dp3936
g61
(dp3937
g69
I3
ssg70
g3931
sg63
(lp3938
S'Contato'
p3939
asbasbasbag56
(g72
g58
NtRp3940
(dp3941
g61
(dp3942
sg70
g3923
sg63
(lp3943
g56
(g77
g58
NtRp3944
(dp3945
g61
(dp3946
sg70
g3940
sg63
(lp3947
g56
(g57
g58
NtRp3948
(dp3949
g61
(dp3950
g69
I3
ssg70
g3944
sg63
(lp3951
g99
asbasbasbag56
(g72
g58
NtRp3952
(dp3953
g61
(dp3954
sg70
g3923
sg63
(lp3955
g56
(g77
g58
NtRp3956
(dp3957
g61
(dp3958
sg70
g3952
sg63
(lp3959
g56
(g57
g58
NtRp3960
(dp3961
g61
(dp3962
g69
I3
ssg70
g3956
sg63
(lp3963
S'/gaviao_peixoto/default/contact'
p3964
asbasbasbag56
(g72
g58
NtRp3965
(dp3966
g61
(dp3967
sg70
g3923
sg63
(lp3968
g56
(g77
g58
NtRp3969
(dp3970
g61
(dp3971
sg70
g3965
sg63
(lp3972
g56
(g57
g58
NtRp3973
(dp3974
g61
(dp3975
g69
I3
ssg70
g3969
sg63
(lp3976
g56
(g65
g58
NtRp3977
(dp3978
g61
(dp3979
g69
I2
ssg70
Nsg63
(lp3980
sbasbasbasbasbasbasbasbasbasbasbasbag56
(g72
g58
NtRp3981
(dp3982
g61
(dp3983
sg70
g3076
sg63
(lp3984
g56
(g77
g58
NtRp3985
(dp3986
g61
(dp3987
g81
g82
ssg70
g3981
sg63
(lp3988
S'meta'
p3989
asbag56
(g77
g58
NtRp3990
(dp3991
g61
(dp3992
g88
g89
ssg70
g3981
sg63
(lp3993
S':'
asbag56
(g77
g58
NtRp3994
(dp3995
g61
(dp3996
sg70
g3981
sg63
(lp3997
g56
(g57
g58
NtRp3998
(dp3999
g61
(dp4000
g69
I5
ssg70
g3994
sg63
(lp4001
g56
(g65
g58
NtRp4002
(dp4003
g61
(dp4004
g69
I4
ssg70
Nsg63
(lp4005
g56
(g72
g58
NtRp4006
(dp4007
g61
(dp4008
sg70
g4002
sg63
(lp4009
g56
(g77
g58
NtRp4010
(dp4011
g61
(dp4012
g81
g82
ssg70
g4006
sg63
(lp4013
S'author'
p4014
asbag56
(g77
g58
NtRp4015
(dp4016
g61
(dp4017
g88
g89
ssg70
g4006
sg63
(lp4018
S':'
asbag56
(g77
g58
NtRp4019
(dp4020
g61
(dp4021
sg70
g4006
sg63
(lp4022
g56
(g57
g58
NtRp4023
(dp4024
g61
(dp4025
g69
I4
ssg70
g4019
sg63
(lp4026
S'Your Name <you@example.com>'
p4027
asbasbasbag56
(g72
g58
NtRp4028
(dp4029
g61
(dp4030
sg70
g4002
sg63
(lp4031
g56
(g77
g58
NtRp4032
(dp4033
g61
(dp4034
g81
g82
ssg70
g4028
sg63
(lp4035
S'copyright'
p4036
asbag56
(g77
g58
NtRp4037
(dp4038
g61
(dp4039
g88
g89
ssg70
g4028
sg63
(lp4040
S':'
asbag56
(g77
g58
NtRp4041
(dp4042
g61
(dp4043
sg70
g4028
sg63
(lp4044
g56
(g57
g58
NtRp4045
(dp4046
g61
(dp4047
g69
I4
ssg70
g4041
sg63
(lp4048
S'Copyright 2011'
p4049
asbasbasbag56
(g72
g58
NtRp4050
(dp4051
g61
(dp4052
sg70
g4002
sg63
(lp4053
g56
(g77
g58
NtRp4054
(dp4055
g61
(dp4056
g81
g82
ssg70
g4050
sg63
(lp4057
S'description'
p4058
asbag56
(g77
g58
NtRp4059
(dp4060
g61
(dp4061
g88
g89
ssg70
g4050
sg63
(lp4062
S':'
asbag56
(g77
g58
NtRp4063
(dp4064
g61
(dp4065
sg70
g4050
sg63
(lp4066
g56
(g57
g58
NtRp4067
(dp4068
g61
(dp4069
g69
I4
ssg70
g4063
sg63
(lp4070
S'a cool new app'
p4071
asbasbasbag56
(g72
g58
NtRp4072
(dp4073
g61
(dp4074
sg70
g4002
sg63
(lp4075
g56
(g77
g58
NtRp4076
(dp4077
g61
(dp4078
g81
g82
ssg70
g4072
sg63
(lp4079
S'generator'
p4080
asbag56
(g77
g58
NtRp4081
(dp4082
g61
(dp4083
g88
g89
ssg70
g4072
sg63
(lp4084
S':'
asbag56
(g77
g58
NtRp4085
(dp4086
g61
(dp4087
sg70
g4072
sg63
(lp4088
g56
(g57
g58
NtRp4089
(dp4090
g61
(dp4091
g69
I4
ssg70
g4085
sg63
(lp4092
S'Web2py Web Framework'
p4093
asbasbasbag56
(g72
g58
NtRp4094
(dp4095
g61
(dp4096
sg70
g4002
sg63
(lp4097
g56
(g77
g58
NtRp4098
(dp4099
g61
(dp4100
g81
g82
ssg70
g4094
sg63
(lp4101
S'keywords'
p4102
asbag56
(g77
g58
NtRp4103
(dp4104
g61
(dp4105
g88
g89
ssg70
g4094
sg63
(lp4106
S':'
asbag56
(g77
g58
NtRp4107
(dp4108
g61
(dp4109
sg70
g4094
sg63
(lp4110
g56
(g57
g58
NtRp4111
(dp4112
g61
(dp4113
g69
I4
ssg70
g4107
sg63
(lp4114
S'web2py, python, framework'
p4115
asbasbasbasbasbasbasbag56
(g72
g58
NtRp4116
(dp4117
g61
(dp4118
sg70
g3076
sg63
(lp4119
g56
(g77
g58
NtRp4120
(dp4121
g61
(dp4122
g81
g82
ssg70
g4116
sg63
(lp4123
S'postprocessing'
p4124
asbag56
(g77
g58
NtRp4125
(dp4126
g61
(dp4127
g88
g89
ssg70
g4116
sg63
(lp4128
S':'
asbag56
(g77
g58
NtRp4129
(dp4130
g61
(dp4131
sg70
g4116
sg63
(lp4132
g56
(g57
g58
NtRp4133
(dp4134
g61
(dp4135
g69
I5
ssg70
g4129
sg63
(lp4136
g56
(g65
g58
NtRp4137
(dp4138
g61
(dp4139
g69
I4
ssg70
Nsg63
(lp4140
sbasbasbasbag56
(g72
g58
NtRp4141
(dp4142
g61
(dp4143
sg70
g3076
sg63
(lp4144
g56
(g77
g58
NtRp4145
(dp4146
g61
(dp4147
g81
g82
ssg70
g4141
sg63
(lp4148
S'session_filename'
p4149
asbag56
(g77
g58
NtRp4150
(dp4151
g61
(dp4152
g88
g89
ssg70
g4141
sg63
(lp4153
S':'
asbag56
(g77
g58
NtRp4154
(dp4155
g61
(dp4156
sg70
g4141
sg63
(lp4157
g56
(g57
g58
NtRp4158
(dp4159
g61
(dp4160
g69
I5
ssg70
g4154
sg63
(lp4161
S'/home/kaique/Projects/web2py/applications/gaviao_peixoto/sessions/127.0.0.1-5e9f7b32-e8fa-450d-a3db-a55a5efc2594'
p4162
asbasbasbag56
(g72
g58
NtRp4163
(dp4164
g61
(dp4165
sg70
g3076
sg63
(lp4166
g56
(g77
g58
NtRp4167
(dp4168
g61
(dp4169
g81
g82
ssg70
g4163
sg63
(lp4170
S'session_id'
p4171
asbag56
(g77
g58
NtRp4172
(dp4173
g61
(dp4174
g88
g89
ssg70
g4163
sg63
(lp4175
S':'
asbag56
(g77
g58
NtRp4176
(dp4177
g61
(dp4178
sg70
g4163
sg63
(lp4179
g56
(g57
g58
NtRp4180
(dp4181
g61
(dp4182
g69
I5
ssg70
g4176
sg63
(lp4183
S'127.0.0.1-5e9f7b32-e8fa-450d-a3db-a55a5efc2594'
p4184
asbasbasbag56
(g72
g58
NtRp4185
(dp4186
g61
(dp4187
sg70
g3076
sg63
(lp4188
g56
(g77
g58
NtRp4189
(dp4190
g61
(dp4191
g81
g82
ssg70
g4185
sg63
(lp4192
S'session_id_name'
p4193
asbag56
(g77
g58
NtRp4194
(dp4195
g61
(dp4196
g88
g89
ssg70
g4185
sg63
(lp4197
S':'
asbag56
(g77
g58
NtRp4198
(dp4199
g61
(dp4200
sg70
g4185
sg63
(lp4201
g56
(g57
g58
NtRp4202
(dp4203
g61
(dp4204
g69
I5
ssg70
g4198
sg63
(lp4205
g3133
asbasbasbag56
(g72
g58
NtRp4206
(dp4207
g61
(dp4208
sg70
g3076
sg63
(lp4209
g56
(g77
g58
NtRp4210
(dp4211
g61
(dp4212
g81
g82
ssg70
g4206
sg63
(lp4213
S'session_new'
p4214
asbag56
(g77
g58
NtRp4215
(dp4216
g61
(dp4217
g88
g89
ssg70
g4206
sg63
(lp4218
S':'
asbag56
(g77
g58
NtRp4219
(dp4220
g61
(dp4221
sg70
g4206
sg63
(lp4222
g56
(g57
g58
NtRp4223
(dp4224
g61
(dp4225
g69
I5
ssg70
g4219
sg63
(lp4226
g1678
asbasbasbag56
(g72
g58
NtRp4227
(dp4228
g61
(dp4229
sg70
g3076
sg63
(lp4230
g56
(g77
g58
NtRp4231
(dp4232
g61
(dp4233
g81
g82
ssg70
g4227
sg63
(lp4234
S'status'
p4235
asbag56
(g77
g58
NtRp4236
(dp4237
g61
(dp4238
g88
g89
ssg70
g4227
sg63
(lp4239
S':'
asbag56
(g77
g58
NtRp4240
(dp4241
g61
(dp4242
sg70
g4227
sg63
(lp4243
g56
(g57
g58
NtRp4244
(dp4245
g61
(dp4246
g69
I5
ssg70
g4240
sg63
(lp4247
S'200'
p4248
asbasbasbag56
(g72
g58
NtRp4249
(dp4250
g61
(dp4251
sg70
g3076
sg63
(lp4252
g56
(g77
g58
NtRp4253
(dp4254
g61
(dp4255
g81
g82
ssg70
g4249
sg63
(lp4256
S'subtitle'
p4257
asbag56
(g77
g58
NtRp4258
(dp4259
g61
(dp4260
g88
g89
ssg70
g4249
sg63
(lp4261
S':'
asbag56
(g77
g58
NtRp4262
(dp4263
g61
(dp4264
sg70
g4249
sg63
(lp4265
g56
(g57
g58
NtRp4266
(dp4267
g61
(dp4268
g69
I5
ssg70
g4262
sg63
(lp4269
cgluon.languages
lazyT_unpickle
p4270
(S't\x00\x00\x00\x00'
tRp4271
asbasbasbag56
(g72
g58
NtRp4272
(dp4273
g61
(dp4274
sg70
g3076
sg63
(lp4275
g56
(g77
g58
NtRp4276
(dp4277
g61
(dp4278
g81
g82
ssg70
g4272
sg63
(lp4279
S'title'
p4280
asbag56
(g77
g58
NtRp4281
(dp4282
g61
(dp4283
g88
g89
ssg70
g4272
sg63
(lp4284
S':'
asbag56
(g77
g58
NtRp4285
(dp4286
g61
(dp4287
sg70
g4272
sg63
(lp4288
g56
(g57
g58
NtRp4289
(dp4290
g61
(dp4291
g69
I5
ssg70
g4285
sg63
(lp4292
S'Gavi\xc3\xa3o Peixoto'
p4293
asbasbasbag56
(g72
g58
NtRp4294
(dp4295
g61
(dp4296
sg70
g3076
sg63
(lp4297
g56
(g77
g58
NtRp4298
(dp4299
g61
(dp4300
g81
g82
ssg70
g4294
sg63
(lp4301
g2322
asbag56
(g77
g58
NtRp4302
(dp4303
g61
(dp4304
g88
g89
ssg70
g4294
sg63
(lp4305
S':'
asbag56
(g77
g58
NtRp4306
(dp4307
g61
(dp4308
sg70
g4294
sg63
(lp4309
g56
(g57
g58
NtRp4310
(dp4311
g61
(dp4312
g69
I5
ssg70
g4306
sg63
(lp4313
g2335
asbasbasbag56
(g72
g58
NtRp4314
(dp4315
g61
(dp4316
sg70
g3076
sg63
(lp4317
g56
(g77
g58
NtRp4318
(dp4319
g61
(dp4320
g81
g82
ssg70
g4314
sg63
(lp4321
S'view'
p4322
asbag56
(g77
g58
NtRp4323
(dp4324
g61
(dp4325
g88
g89
ssg70
g4314
sg63
(lp4326
S':'
asbag56
(g77
g58
NtRp4327
(dp4328
g61
(dp4329
sg70
g4314
sg63
(lp4330
g56
(g57
g58
NtRp4331
(dp4332
g61
(dp4333
g69
I5
ssg70
g4327
sg63
(lp4334
S'default/index.html'
p4335
asbasbasbasbasbsS'locals'
p4336
(dp4337
S'Service'
p4338
S"<class 'gluon.tools.Service'>"
p4339
sS'OBJECT'
p4340
S"<class 'gluon.html.OBJECT'>"
p4341
sS'SQLDB'
p4342
S"<class 'gluon.dal.DAL'>"
p4343
sg3058
S"<Storage {'_Session__hash': '\\xc8[\\xd5\\xc1#\\xd8e\\x10\\xe3\\x06\\x0ba\\xddT\\x92m'}>"
p4344
sS'LINK'
p4345
S"<class 'gluon.html.LINK'>"
p4346
sS'BR'
p4347
S"<class 'gluon.html.BR'>"
p4348
sS'local_import'
p4349
S'<function <lambda>>'
p4350
sS'OPTGROUP'
p4351
S"<class 'gluon.html.OPTGROUP'>"
p4352
sS'PRE'
p4353
S"<class 'gluon.html.PRE'>"
p4354
sS'IS_INT_IN_RANGE'
p4355
S"<class 'gluon.validators.IS_INT_IN_RANGE'>"
p4356
sS'left_sidebar_enabled'
p4357
g99
sS'IS_LOWER'
p4358
S"<class 'gluon.validators.IS_LOWER'>"
p4359
sS'IS_STRONG'
p4360
S"<class 'gluon.validators.IS_STRONG'>"
p4361
sS'cache'
p4362
S'<gluon.cache.Cache object>'
p4363
sS'IS_IN_DB'
p4364
S"<class 'gluon.validators.IS_IN_DB'>"
p4365
sS'TAG'
p4366
S'<gluon.html.__TAG__ object>'
p4367
sS'SQLField'
p4368
S"<class 'gluon.dal.Field'>"
p4369
sS'mail'
p4370
S'<gluon.tools.Mail object>'
p4371
sS'BODY'
p4372
S"<class 'gluon.html.BODY'>"
p4373
sS'IS_DATE_IN_RANGE'
p4374
S"<class 'gluon.validators.IS_DATE_IN_RANGE'>"
p4375
sS'TH'
p4376
S"<class 'gluon.html.TH'>"
p4377
sS'URL'
p4378
S'<function URL>'
p4379
sS'__file__'
p4380
S"'/home/kaique/Projects/web2py/applications/gaviao_peixoto/views/default/index.html'"
p4381
sS'db'
p4382
S"<DAL {'auth_event': <Table {'origin': <gluon.dal..., 'id': <gluon.dal.Field object at 0x33aa350>}>}>"
p4383
sS'auth'
p4384
S'<gluon.tools.Auth object>'
p4385
sS'P'
S"<class 'gluon.html.P'>"
p4386
sS'TFOOT'
p4387
S"<class 'gluon.html.TFOOT'>"
p4388
sS'XHTML'
p4389
S"<class 'gluon.html.XHTML'>"
p4390
sS'ON'
p4391
g1678
sS'OL'
p4392
S"<class 'gluon.html.OL'>"
p4393
sS'TEXTAREA'
p4394
S"<class 'gluon.html.TEXTAREA'>"
p4395
sS'MENU'
p4396
S"<class 'gluon.html.MENU'>"
p4397
sS'LOAD'
p4398
S'<gluon.compileapp.LoadFactory object>'
p4399
sS'CODE'
p4400
S"<class 'gluon.html.CODE'>"
p4401
sS'HTTP'
p4402
S"<class 'gluon.http.HTTP'>"
p4403
sS'HR'
p4404
S"<class 'gluon.html.HR'>"
p4405
sS'IS_DATETIME'
p4406
S"<class 'gluon.validators.IS_DATETIME'>"
p4407
sS'HEAD'
p4408
S"<class 'gluon.html.HEAD'>"
p4409
sS'LABEL'
p4410
S"<class 'gluon.html.LABEL'>"
p4411
sS'CLEANUP'
p4412
S"<class 'gluon.validators.CLEANUP'>"
p4413
sS'plugins'
p4414
S'<gluon.tools.PluginManager object>'
p4415
sS'SELECT'
p4416
S"<class 'gluon.html.SELECT'>"
p4417
sS'use_janrain'
p4418
S'<function use_janrain>'
p4419
sS'CENTER'
p4420
S"<class 'gluon.html.CENTER'>"
p4421
sS'prettydate'
p4422
S'<function prettydate>'
p4423
sS'Crud'
p4424
S"<class 'gluon.tools.Crud'>"
p4425
sS'Auth'
p4426
S"<class 'gluon.tools.Auth'>"
p4427
sS'__builtins__'
p4428
S"{'ArithmeticError': <type 'exceptions.ArithmeticError'>, 'AssertionError': <type 'exceptions.AssertionError'>, 'AttributeError': <type 'exceptions.AttributeError'>, 'BaseException': <type 'exceptions.BaseException'>, 'BufferError': <type 'exceptions.BufferError'>, 'BytesWarning': <type 'exceptions.BytesWarning'>, 'DeprecationWarning': <type 'exceptions.DeprecationWarning'>, 'EOFError': <type 'exceptions.EOFError'>, 'Ellipsis': Ellipsis, 'EnvironmentError': <type 'exceptions.EnvironmentError'>, ...}"
p4429
sS'HTML'
p4430
S"<class 'gluon.html.HTML'>"
p4431
sS'SQLFORM'
p4432
S"<class 'gluon.sqlhtml.SQLFORM'>"
p4433
sS'EM'
p4434
S"<class 'gluon.html.EM'>"
p4435
sS'redirect'
p4436
S'<function redirect>'
p4437
sS'FIELDSET'
p4438
S"<class 'gluon.html.FIELDSET'>"
p4439
sS'IS_EQUAL_TO'
p4440
S"<class 'gluon.validators.IS_EQUAL_TO'>"
p4441
sS'embed64'
p4442
S'<function embed64>'
p4443
sS'IS_LIST_OF'
p4444
S"<class 'gluon.validators.IS_LIST_OF'>"
p4445
sS'INPUT'
p4446
S"<class 'gluon.html.INPUT'>"
p4447
sS'EMBED'
p4448
S"<class 'gluon.html.EMBED'>"
p4449
sS'FORM'
p4450
S"<class 'gluon.html.FORM'>"
p4451
sS'width_content'
p4452
S"'100%'"
p4453
sS'H2'
p4454
S"<class 'gluon.html.H2'>"
p4455
sS'H3'
p4456
S"<class 'gluon.html.H3'>"
p4457
sS'BUTTON'
p4458
S"<class 'gluon.html.BUTTON'>"
p4459
sS'H1'
p4460
S"<class 'gluon.html.H1'>"
p4461
sS'H6'
p4462
S"<class 'gluon.html.H6'>"
p4463
sS'H4'
p4464
S"<class 'gluon.html.H4'>"
p4465
sS'H5'
p4466
S"<class 'gluon.html.H5'>"
p4467
sS'UL'
p4468
S"<class 'gluon.html.UL'>"
p4469
sS'IS_UPPER'
p4470
S"<class 'gluon.validators.IS_UPPER'>"
p4471
sS'xmlescape'
p4472
S'<function xmlescape>'
p4473
sS'IS_TIME'
p4474
S"<class 'gluon.validators.IS_TIME'>"
p4475
sS'OPTION'
p4476
S"<class 'gluon.html.OPTION'>"
p4477
sS'TITLE'
p4478
S"<class 'gluon.html.TITLE'>"
p4479
sS'CRYPT'
p4480
S"<class 'gluon.validators.CRYPT'>"
p4481
sS'IS_EMPTY_OR'
p4482
S"<class 'gluon.validators.IS_EMPTY_OR'>"
p4483
sS'MARKMIN'
p4484
S"<class 'gluon.html.MARKMIN'>"
p4485
sS'COL'
p4486
S"<class 'gluon.html.COL'>"
p4487
sS'service'
p4488
S'<gluon.tools.Service object>'
p4489
sS'SCRIPT'
p4490
S"<class 'gluon.html.SCRIPT'>"
p4491
sS'TABLE'
p4492
S"<class 'gluon.html.TABLE'>"
p4493
sS'IS_IPV4'
p4494
S"<class 'gluon.validators.IS_IPV4'>"
p4495
sS'IS_LENGTH'
p4496
S"<class 'gluon.validators.IS_LENGTH'>"
p4497
sS'XML'
p4498
S"<class 'gluon.html.XML'>"
p4499
sS'B'
S"<class 'gluon.html.B'>"
p4500
sS'IMG'
p4501
S"<class 'gluon.html.IMG'>"
p4502
sS'SQLTABLE'
p4503
S"<class 'gluon.sqlhtml.SQLTABLE'>"
p4504
sS'IS_MATCH'
p4505
S"<class 'gluon.validators.IS_MATCH'>"
p4506
sS'IS_ALPHANUMERIC'
p4507
S"<class 'gluon.validators.IS_ALPHANUMERIC'>"
p4508
sS'SPAN'
p4509
S"<class 'gluon.html.SPAN'>"
p4510
sS'IS_SLUG'
p4511
S"<class 'gluon.validators.IS_SLUG'>"
p4512
sS'BEAUTIFY'
p4513
S"<class 'gluon.html.BEAUTIFY'>"
p4514
sS'META'
p4515
S"<class 'gluon.html.META'>"
p4516
sS'IS_DATE'
p4517
S"<class 'gluon.validators.IS_DATE'>"
p4518
sS'IS_EMAIL'
p4519
S"<class 'gluon.validators.IS_EMAIL'>"
p4520
sS'IS_NOT_EMPTY'
p4521
S"<class 'gluon.validators.IS_NOT_EMPTY'>"
p4522
sS'IS_FLOAT_IN_RANGE'
p4523
S"<class 'gluon.validators.IS_FLOAT_IN_RANGE'>"
p4524
sS'TBODY'
p4525
S"<class 'gluon.html.TBODY'>"
p4526
sS'CAT'
p4527
S"<class 'gluon.html.CAT'>"
p4528
sS'Field'
p4529
S"<class 'gluon.dal.Field'>"
p4530
sS'DIV'
p4531
S"<class 'gluon.html.DIV'>"
p4532
sS'LEGEND'
p4533
S"<class 'gluon.html.LEGEND'>"
p4534
sS'COLGROUP'
p4535
S"<class 'gluon.html.COLGROUP'>"
p4536
sS'DAL'
p4537
S"<class 'gluon.dal.DAL'>"
p4538
sS'TT'
p4539
S"<class 'gluon.html.TT'>"
p4540
sS'TR'
p4541
S"<class 'gluon.html.TR'>"
p4542
sS'LI'
p4543
S"<class 'gluon.html.LI'>"
p4544
sS'right_sidebar_enabled'
p4545
g99
sS'IFRAME'
p4546
S"<class 'gluon.html.IFRAME'>"
p4547
sS'TD'
p4548
S"<class 'gluon.html.TD'>"
p4549
sS'PluginManager'
p4550
S"<class 'gluon.tools.PluginManager'>"
p4551
sS'IS_URL'
p4552
S"<class 'gluon.validators.IS_URL'>"
p4553
sS'A'
S"<class 'gluon.html.A'>"
p4554
sS'STYLE'
p4555
S"<class 'gluon.html.STYLE'>"
p4556
sS'IS_DATETIME_IN_RANGE'
p4557
S"<class 'gluon.validators.IS_DATETIME_IN_RANGE'>"
p4558
sS'IS_IMAGE'
p4559
S"<class 'gluon.validators.IS_IMAGE'>"
p4560
sS'I'
S"<class 'gluon.html.I'>"
p4561
sS'crud'
p4562
S'<gluon.tools.Crud object>'
p4563
sS'right_sidebar_style'
p4564
S'\'style="display: none;"\''
p4565
sS'IS_NOT_IN_DB'
p4566
S"<class 'gluon.validators.IS_NOT_IN_DB'>"
p4567
sg3071
S"<Storage {'status': 200, 'body': <cStringIO.Stri...js/superfish.js'], 'view': 'default/index.html'}>"
p4568
sS'THEAD'
p4569
S"<class 'gluon.html.THEAD'>"
p4570
sS'IS_NULL_OR'
p4571
S"<class 'gluon.validators.IS_EMPTY_OR'>"
p4572
sS'left_sidebar_style'
p4573
S'\'style="display: none;"\''
p4574
sg55
S"<Storage {'body': <cStringIO.StringO object at 0..._vars': <Storage {}>, 'post_vars': <Storage {}>}>"
p4575
sS'IS_EXPR'
p4576
S"<class 'gluon.validators.IS_EXPR'>"
p4577
sS'T'
S'<gluon.languages.translator object>'
p4578
sS'IS_IN_SET'
p4579
S"<class 'gluon.validators.IS_IN_SET'>"
p4580
sS'IS_UPLOAD_FILENAME'
p4581
S"<class 'gluon.validators.IS_UPLOAD_FILENAME'>"
p4582
sS'style_content'
p4583
S'\'style="width: 100%"\''
p4584
sS'IS_DECIMAL_IN_RANGE'
p4585
S"<class 'gluon.validators.IS_DECIMAL_IN_RANGE'>"
p4586
sssS'traceback'
p4587
S'Traceback (most recent call last):\n  File "/home/kaique/Projects/web2py/gluon/restricted.py", line 194, in restricted\n    exec ccode in environment\n  File "/home/kaique/Projects/web2py/applications/gaviao_peixoto/views/default/index.html", line 62, in <module>\nAttributeError: \'NoneType\' object has no attribute \'capitalize\'\n'
p4588
s.